Component: ARM Compiler 5.06 update 4 (build 422) Tool: armlink [4d35d2]

==============================================================================

Section Cross References

    flash_handler.o(i.Flash_Data_Writer) refers to flash.o(i.Flash_Init) for Flash_Init
    flash_handler.o(i.Flash_Data_Writer) refers to flash.o(i.Flash_SectorErase) for Flash_SectorErase
    flash_handler.o(i.Flash_Data_Writer) refers to flash.o(i.Flash_WriteByte) for Flash_WriteByte
    flash_handler.o(i.Flash_Data_Writer) refers to flash_handler.o(.data) for Flash_Init_Flag
    flash_handler.o(i.Flash_Data_Writer) refers to flash_handler.o(i.Flash_Int_CallBack) for Flash_Int_CallBack
    flash_handler.o(i.Flash_Int_CallBack) refers to flash.o(i.Flash_GetIntFlag) for Flash_GetIntFlag
    flash_handler.o(i.Flash_Int_CallBack) refers to flash.o(i.Flash_ClearIntFlag) for Flash_ClearIntFlag
    flash_handler.o(i.Flash_Int_CallBack) refers to flash.o(i.Flash_DisableIrq) for Flash_DisableIrq
    flash_handler.o(i.Jump_AppRun) refers to flash_handler.o(.data) for JumpAddress
    flash_handler.o(i.VectorTableOffset) refers to flash_handler.o(.ARM.__AT_0x20000000) for VectorTable
    timehandler.o(i.Boost_Pwm) refers to adt.o(i.Adt_SetCompareValue) for Adt_SetCompareValue
    timehandler.o(i.Boost_Start) refers to adt.o(i.Adt_StartCount) for Adt_StartCount
    timehandler.o(i.Boost_Stop) refers to timehandler.o(i.Boost_Pwm) for Boost_Pwm
    timehandler.o(i.Boost_Stop) refers to adt.o(i.Adt_StopCount) for Adt_StopCount
    timehandler.o(i.Ems_SleepInit) refers to timehandler.o(i.TimestampStop) for TimestampStop
    timehandler.o(i.Ems_SleepInit) refers to timehandler.o(i.Boost_Stop) for Boost_Stop
    timehandler.o(i.Ems_SleepInit) refers to sysctrl.o(i.Sysctrl_SetPeripheralGate) for Sysctrl_SetPeripheralGate
    timehandler.o(i.Tim2Int) refers to bt.o(i.Bt_GetIntFlag) for Bt_GetIntFlag
    timehandler.o(i.Tim2Int) refers to bt.o(i.Bt_ClearIntFlag) for Bt_ClearIntFlag
    timehandler.o(i.Tim2Int) refers to main.o(i.SoftTimerCount) for SoftTimerCount
    timehandler.o(i.Tim2Int) refers to main.o(.data) for softtime_Count_1ms
    timehandler.o(i.Tim2Int) refers to ems.o(.data) for StrengUpdateControl
    timehandler.o(i.Time0IntCallback) refers to bt.o(i.Bt_GetIntFlag) for Bt_GetIntFlag
    timehandler.o(i.Time0IntCallback) refers to bt.o(i.Bt_ClearIntFlag) for Bt_ClearIntFlag
    timehandler.o(i.Time0IntCallback) refers to ems.o(i.EMS_PwmControl) for EMS_PwmControl
    timehandler.o(i.Time3Breathing_Light_Duty) refers to timer3.o(i.Tim3_M23_CCR_Set) for Tim3_M23_CCR_Set
    timehandler.o(i.Time3IntCallback) refers to timer3.o(i.Tim3_GetIntFlag) for Tim3_GetIntFlag
    timehandler.o(i.Time3IntCallback) refers to timer3.o(i.Tim3_ClearIntFlag) for Tim3_ClearIntFlag
    timehandler.o(i.TimeBoostPwmInit) refers to ddl.o(i.ddl_memclr) for ddl_memclr
    timehandler.o(i.TimeBoostPwmInit) refers to flash.o(i.Flash_WaitCycle) for Flash_WaitCycle
    timehandler.o(i.TimeBoostPwmInit) refers to sysctrl.o(i.Sysctrl_SetPeripheralGate) for Sysctrl_SetPeripheralGate
    timehandler.o(i.TimeBoostPwmInit) refers to gpio.o(i.Gpio_Init) for Gpio_Init
    timehandler.o(i.TimeBoostPwmInit) refers to gpio.o(i.Gpio_SetAfMode) for Gpio_SetAfMode
    timehandler.o(i.TimeBoostPwmInit) refers to adt.o(i.Adt_Init) for Adt_Init
    timehandler.o(i.TimeBoostPwmInit) refers to adt.o(i.Adt_SetPeriod) for Adt_SetPeriod
    timehandler.o(i.TimeBoostPwmInit) refers to adt.o(i.Adt_SetCompareValue) for Adt_SetCompareValue
    timehandler.o(i.TimeBoostPwmInit) refers to adt.o(i.Adt_CHxXPortConfig) for Adt_CHxXPortConfig
    timehandler.o(i.TimeBoostPwmInit) refers to adt.o(i.Adt_StartCount) for Adt_StartCount
    timehandler.o(i.TimestampInit) refers to ddl.o(i.ddl_memclr) for ddl_memclr
    timehandler.o(i.TimestampInit) refers to flash.o(i.Flash_WaitCycle) for Flash_WaitCycle
    timehandler.o(i.TimestampInit) refers to sysctrl.o(i.Sysctrl_SetPeripheralGate) for Sysctrl_SetPeripheralGate
    timehandler.o(i.TimestampInit) refers to bt.o(i.Bt_Mode23_Init) for Bt_Mode23_Init
    timehandler.o(i.TimestampInit) refers to bt.o(i.Bt_M23_ARRSet) for Bt_M23_ARRSet
    timehandler.o(i.TimestampInit) refers to bt.o(i.Bt_M23_SetValidPeriod) for Bt_M23_SetValidPeriod
    timehandler.o(i.TimestampInit) refers to bt.o(i.Bt_M23_Cnt16Set) for Bt_M23_Cnt16Set
    timehandler.o(i.TimestampInit) refers to bt.o(i.Bt_ClearAllIntFlag) for Bt_ClearAllIntFlag
    timehandler.o(i.TimestampInit) refers to bt.o(i.Bt_Mode23_EnableIrq) for Bt_Mode23_EnableIrq
    timehandler.o(i.TimestampInit) refers to interrupts_hc32l136.o(i.EnableNvic) for EnableNvic
    timehandler.o(i.TimestampInit) refers to bt.o(i.Bt_M23_Run) for Bt_M23_Run
    timehandler.o(i.TimestampInit) refers to timehandler.o(i.Time0IntCallback) for Time0IntCallback
    timehandler.o(i.TimestampStart) refers to bt.o(i.Bt_ClearAllIntFlag) for Bt_ClearAllIntFlag
    timehandler.o(i.TimestampStart) refers to bt.o(i.Bt_Mode23_EnableIrq) for Bt_Mode23_EnableIrq
    timehandler.o(i.TimestampStart) refers to interrupts_hc32l136.o(i.EnableNvic) for EnableNvic
    timehandler.o(i.TimestampStart) refers to bt.o(i.Bt_M23_Run) for Bt_M23_Run
    timehandler.o(i.TimestampStop) refers to bt.o(i.Bt_M23_Cnt16Set) for Bt_M23_Cnt16Set
    timehandler.o(i.TimestampStop) refers to bt.o(i.Bt_M23_Stop) for Bt_M23_Stop
    timehandler.o(i.TimestampStop) refers to bt.o(i.Bt_ClearAllIntFlag) for Bt_ClearAllIntFlag
    timehandler.o(i.TimestampStop) refers to bt.o(i.Bt_Mode23_DisableIrq) for Bt_Mode23_DisableIrq
    timehandler.o(i.TimestampStop) refers to interrupts_hc32l136.o(i.EnableNvic) for EnableNvic
    timehandler.o(i.TimestampUpdateFreq) refers to bt.o(i.Bt_M23_Cnt16Set) for Bt_M23_Cnt16Set
    timehandler.o(i.TimestampUpdateFreq) refers to bt.o(i.Bt_M23_ARRSet) for Bt_M23_ARRSet
    timehandler.o(i.Update2Time) refers to ddl.o(i.ddl_memclr) for ddl_memclr
    timehandler.o(i.Update2Time) refers to sysctrl.o(i.Sysctrl_SetPeripheralGate) for Sysctrl_SetPeripheralGate
    timehandler.o(i.Update2Time) refers to bt.o(i.Bt_Mode23_Init) for Bt_Mode23_Init
    timehandler.o(i.Update2Time) refers to bt.o(i.Bt_M23_ARRSet) for Bt_M23_ARRSet
    timehandler.o(i.Update2Time) refers to bt.o(i.Bt_M23_SetValidPeriod) for Bt_M23_SetValidPeriod
    timehandler.o(i.Update2Time) refers to bt.o(i.Bt_M23_Cnt16Set) for Bt_M23_Cnt16Set
    timehandler.o(i.Update2Time) refers to bt.o(i.Bt_ClearAllIntFlag) for Bt_ClearAllIntFlag
    timehandler.o(i.Update2Time) refers to bt.o(i.Bt_Mode23_EnableIrq) for Bt_Mode23_EnableIrq
    timehandler.o(i.Update2Time) refers to interrupts_hc32l136.o(i.EnableNvic) for EnableNvic
    timehandler.o(i.Update2Time) refers to bt.o(i.Bt_M23_EnPWM_Output) for Bt_M23_EnPWM_Output
    timehandler.o(i.Update2Time) refers to bt.o(i.Bt_M23_Run) for Bt_M23_Run
    timehandler.o(i.Update2Time) refers to timehandler.o(i.Tim2Int) for Tim2Int
    timehandler.o(i.Update2TimeSleep) refers to sysctrl.o(i.Sysctrl_SetPeripheralGate) for Sysctrl_SetPeripheralGate
    timehandler.o(i.Update2TimeSleep) refers to bt.o(i.Bt_M23_Stop) for Bt_M23_Stop
    timehandler.o(i.breathing_LightInit) refers to ddl.o(i.ddl_memclr) for ddl_memclr
    timehandler.o(i.breathing_LightInit) refers to gpio.o(i.Gpio_Init) for Gpio_Init
    timehandler.o(i.breathing_LightInit) refers to gpio.o(i.Gpio_SetAfMode) for Gpio_SetAfMode
    timehandler.o(i.breathing_LightInit) refers to sysctrl.o(i.Sysctrl_SetPeripheralGate) for Sysctrl_SetPeripheralGate
    timehandler.o(i.breathing_LightInit) refers to timer3.o(i.Tim3_Mode23_Init) for Tim3_Mode23_Init
    timehandler.o(i.breathing_LightInit) refers to timer3.o(i.Tim3_M23_ARRSet) for Tim3_M23_ARRSet
    timehandler.o(i.breathing_LightInit) refers to timer3.o(i.Tim3_M23_CCR_Set) for Tim3_M23_CCR_Set
    timehandler.o(i.breathing_LightInit) refers to timer3.o(i.Tim3_M23_PortOutput_Config) for Tim3_M23_PortOutput_Config
    timehandler.o(i.breathing_LightInit) refers to timer3.o(i.Tim3_M23_SetValidPeriod) for Tim3_M23_SetValidPeriod
    timehandler.o(i.breathing_LightInit) refers to timer3.o(i.Tim3_M23_Cnt16Set) for Tim3_M23_Cnt16Set
    timehandler.o(i.breathing_LightInit) refers to timer3.o(i.Tim3_M23_EnPWM_Output) for Tim3_M23_EnPWM_Output
    timehandler.o(i.breathing_LightInit) refers to timer3.o(i.Tim3_M23_Run) for Tim3_M23_Run
    timehandler.o(i.breathing_LightInit) refers to timehandler.o(i.Time3Breathing_Light_Duty) for Time3Breathing_Light_Duty
    timehandler.o(i.breathing_LightInit) refers to timehandler.o(i.Time3IntCallback) for Time3IntCallback
    uarthandler.o(i.RxIntCallback) refers to uart.o(i.Uart_ReceiveData) for Uart_ReceiveData
    uarthandler.o(i.RxIntCallback) refers to uarthandler.o(.data) for u8RxData
    uarthandler.o(i.TxIntCallback) refers to uarthandler.o(.data) for u8TxCnt
    uarthandler.o(i.UartDataParseHandler) refers to main.o(.bss) for RxBufferHandler
    uarthandler.o(i.UartInit) refers to ddl.o(i.ddl_memclr) for ddl_memclr
    uarthandler.o(i.UartInit) refers to sysctrl.o(i.Sysctrl_SetPeripheralGate) for Sysctrl_SetPeripheralGate
    uarthandler.o(i.UartInit) refers to uarthandler.o(i.Uart_PortInit) for Uart_PortInit
    uarthandler.o(i.UartInit) refers to interrupts_hc32l136.o(i.EnableNvic) for EnableNvic
    uarthandler.o(i.UartInit) refers to lpuart.o(i.LPUart_SetMultiMode) for LPUart_SetMultiMode
    uarthandler.o(i.UartInit) refers to lpuart.o(i.LPUart_SetMMDOrCk) for LPUart_SetMMDOrCk
    uarthandler.o(i.UartInit) refers to lpuart.o(i.LPUart_Init) for LPUart_Init
    uarthandler.o(i.UartInit) refers to lpuart.o(i.LPUart_SetClkDiv) for LPUart_SetClkDiv
    uarthandler.o(i.UartInit) refers to sysctrl.o(i.Sysctrl_GetPClkFreq) for Sysctrl_GetPClkFreq
    uarthandler.o(i.UartInit) refers to lpuart.o(i.LPUart_CalScnt) for LPUart_CalScnt
    uarthandler.o(i.UartInit) refers to lpuart.o(i.LPUart_SetBaud) for LPUart_SetBaud
    uarthandler.o(i.UartInit) refers to lpuart.o(i.LPUart_EnableIrq) for LPUart_EnableIrq
    uarthandler.o(i.UartInit) refers to lpuart.o(i.LPUart_ClrStatus) for LPUart_ClrStatus
    uarthandler.o(i.UartInit) refers to lpuart.o(i.LPUart_EnableFunc) for LPUart_EnableFunc
    uarthandler.o(i.UartInit) refers to uarthandler.o(i.RxIntCallback) for RxIntCallback
    uarthandler.o(i.UartInit) refers to uarthandler.o(i.TxIntCallback) for TxIntCallback
    uarthandler.o(i.UartInit) refers to uarthandler.o(i.ErrIntCallback) for ErrIntCallback
    uarthandler.o(i.UartInit) refers to uarthandler.o(i.PErrIntCallBack) for PErrIntCallBack
    uarthandler.o(i.UartInit) refers to uarthandler.o(i.CtsIntCallBack) for CtsIntCallBack
    uarthandler.o(i.UartToSendData) refers to lpuart.o(i.LPUart_SendData) for LPUart_SendData
    uarthandler.o(i.Uart_PortInit) refers to ddl.o(i.ddl_memclr) for ddl_memclr
    uarthandler.o(i.Uart_PortInit) refers to gpio.o(i.Gpio_Init) for Gpio_Init
    uarthandler.o(i.Uart_PortInit) refers to gpio.o(i.Gpio_SetAfMode) for Gpio_SetAfMode
    main.o(i.AdcSampleTask) refers to ffltui.o(.text) for __aeabi_ui2f
    main.o(i.AdcSampleTask) refers to fdiv.o(.text) for __aeabi_fdiv
    main.o(i.AdcSampleTask) refers to fmul.o(.text) for __aeabi_fmul
    main.o(i.AdcSampleTask) refers to ffixui.o(.text) for __aeabi_f2uiz
    main.o(i.AdcSampleTask) refers to util.o(i.SampleFilterHandler) for SampleFilterHandler
    main.o(i.AdcSampleTask) refers to util.o(i.SampleFilterFloatHandler) for SampleFilterFloatHandler
    main.o(i.AdcSampleTask) refers to uidiv.o(.text) for __aeabi_uidivmod
    main.o(i.AdcSampleTask) refers to main.o(i.ExternBoardCheckHandler) for ExternBoardCheckHandler
    main.o(i.AdcSampleTask) refers to ntctempsample.o(i.NTCSampleDataHandler) for NTCSampleDataHandler
    main.o(i.AdcSampleTask) refers to adc.o(i.Adc_SQR_Start) for Adc_SQR_Start
    main.o(i.AdcSampleTask) refers to main.o(.data) for IRQ_Start_Enable
    main.o(i.AdcSampleTask) refers to adcsample.o(.bss) for ADC_Result_Array
    main.o(i.AdcSampleTask) refers to main.o(.bss) for VoltageSampleBuff
    main.o(i.AdcSampleTask) refers to ntctempsample.o(.bss) for NTCDataSmaple
    main.o(i.Battery_Status_Check) refers to key.o(i.Battery_Chg_Status_Pin_Scan) for Battery_Chg_Status_Pin_Scan
    main.o(i.Battery_Status_Check) refers to cfcmple.o(.text) for __aeabi_cfcmple
    main.o(i.Battery_Status_Check) refers to key.o(.data) for Chg_Status_CheckHandler
    main.o(i.Battery_Status_Check) refers to ntctempsample.o(.bss) for NTCDataSmaple
    main.o(i.Battery_Status_Check) refers to main.o(.data) for ErrorCount
    main.o(i.Battery_Status_Check) refers to main.o(.bss) for MassageHandler
    main.o(i.ClkInit24M) refers to sysctrl.o(i.Sysctrl_SetRCHTrim) for Sysctrl_SetRCHTrim
    main.o(i.ClkInit24M) refers to sysctrl.o(i.Sysctrl_SysClkSwitch) for Sysctrl_SysClkSwitch
    main.o(i.ClkInit24M) refers to ddl.o(i.delay10us) for delay10us
    main.o(i.ClkInit4M) refers to sysctrl.o(i.Sysctrl_SetRCHTrim) for Sysctrl_SetRCHTrim
    main.o(i.ClkInit4M) refers to sysctrl.o(i.Sysctrl_SysClkSwitch) for Sysctrl_SysClkSwitch
    main.o(i.ClkInit4M) refers to ddl.o(i.delay10us) for delay10us
    main.o(i.DeviceDataInit) refers to main.o(.data) for Motor_Vibr_Control
    main.o(i.DeviceDataInit) refers to main.o(.bss) for MassageHandler
    main.o(i.EMSTimeInit) refers to timehandler.o(i.TimestampInit) for TimestampInit
    main.o(i.EMSTimeInit) refers to timehandler.o(i.TimeBoostPwmInit) for TimeBoostPwmInit
    main.o(i.EMSTimeInit) refers to ems.o(i.Ems_Start) for Ems_Start
    main.o(i.EMS_Status_Check) refers to key.o(i.EMS_Port_Pin_Status) for EMS_Port_Pin_Status
    main.o(i.Ems_CallTask) refers to ems.o(i.EMSControlHandler) for EMSControlHandler
    main.o(i.Ems_CallTask) refers to main.o(.data) for invoking_interval_Time_flag
    main.o(i.Ems_Control_F) refers to main.o(i.__ARM_common_switch8) for __ARM_common_switch8
    main.o(i.Ems_Control_F) refers to main.o(i.Ems_CallTask) for Ems_CallTask
    main.o(i.Ems_Control_F) refers to key.o(i.Battery_Chg_Compl_Status_Check) for Battery_Chg_Compl_Status_Check
    main.o(i.Ems_Control_F) refers to main.o(i.Heat_temperature_Control) for Heat_temperature_Control
    main.o(i.Ems_Control_F) refers to ems.o(i.Ems_Output_Close) for Ems_Output_Close
    main.o(i.Ems_Control_F) refers to main.o(i.Heat_Temperature_Close) for Heat_Temperature_Close
    main.o(i.Ems_Control_F) refers to main.o(.bss) for MassageHandler
    main.o(i.Ems_Control_F) refers to main.o(.data) for flag
    main.o(i.Ems_Control_F) refers to key.o(.data) for Chg_Status_CheckHandler
    main.o(i.Ems_Control_F) refers to ems.o(.data) for StrengUpdateControl
    main.o(i.Ems_Massage_Mode_update) refers to ems.o(i.Ems_ParaInit) for Ems_ParaInit
    main.o(i.Ems_Massage_Mode_update) refers to main.o(.bss) for MassageHandler
    main.o(i.ExternBoardCheckHandler) refers to util.o(i.CompareParaSize) for CompareParaSize
    main.o(i.ExternBoardCheckHandler) refers to main.o(i.Ems_Massage_Mode_update) for Ems_Massage_Mode_update
    main.o(i.ExternBoardCheckHandler) refers to main.o(.bss) for ExtensiondetectBuff
    main.o(i.ExternBoardCheckHandler) refers to main.o(.data) for ElectriceTyp
    main.o(i.HardWareInit) refers to main.o(i.peripheralInit) for peripheralInit
    main.o(i.HardWareInit) refers to ledmotor.o(i.Led_1_Init) for Led_1_Init
    main.o(i.HardWareInit) refers to timehandler.o(i.breathing_LightInit) for breathing_LightInit
    main.o(i.HardWareInit) refers to ledmotor.o(i.Motor_Init) for Motor_Init
    main.o(i.HardWareInit) refers to ledmotor.o(i.Heater_Init) for Heater_Init
    main.o(i.HardWareInit) refers to key.o(i.HallSwitchTrigTouchKeyInit) for HallSwitchTrigTouchKeyInit
    main.o(i.HardWareInit) refers to uarthandler.o(i.UartInit) for UartInit
    main.o(i.HardWareInit) refers to adcsample.o(i.AdcSampleInit) for AdcSampleInit
    main.o(i.HardWareInit) refers to ems_port.o(i.EMS_Port_Init) for EMS_Port_Init
    main.o(i.HardWareInit) refers to main.o(i.EMSTimeInit) for EMSTimeInit
    main.o(i.HardWareInit) refers to timehandler.o(i.Update2Time) for Update2Time
    main.o(i.HardWareInit) refers to key.o(i.Battery_Chg_Status_Pin_Init) for Battery_Chg_Status_Pin_Init
    main.o(i.HardWareInit) refers to key.o(i.EMS_Port_Check_Pin_Init) for EMS_Port_Check_Pin_Init
    main.o(i.HardWareInit) refers to key.o(i.Battery_Chg_Compl_Status_Init) for Battery_Chg_Compl_Status_Init
    main.o(i.Heat_Temperature_Close) refers to gpio.o(i.Gpio_SetIO) for Gpio_SetIO
    main.o(i.Heat_temperature_Control) refers to gpio.o(i.Gpio_SetIO) for Gpio_SetIO
    main.o(i.Heat_temperature_Control) refers to gpio.o(i.Gpio_ClrIO) for Gpio_ClrIO
    main.o(i.Heat_temperature_Control) refers to main.o(.bss) for MassageHandler
    main.o(i.Heat_temperature_Control) refers to ntctempsample.o(.bss) for NTCDataSmaple
    main.o(i.Heat_temperature_Control) refers to main.o(.constdata) for Heat_temperatureTable
    main.o(i.Heat_temperature_Control) refers to main.o(.data) for Heat_temperature_Switch_Status
    main.o(i.KeyHandler) refers to ems.o(i.Ems_ParaInit) for Ems_ParaInit
    main.o(i.KeyHandler) refers to ems.o(i.Ems_Start) for Ems_Start
    main.o(i.KeyHandler) refers to key.o(.data) for keyDataHandler
    main.o(i.KeyHandler) refers to main.o(.bss) for MassageHandler
    main.o(i.KeyHandler) refers to main.o(.data) for Motor_Vibr_Control
    main.o(i.LED_Status_Control) refers to main.o(i.__ARM_common_switch8) for __ARM_common_switch8
    main.o(i.LED_Status_Control) refers to timehandler.o(i.Time3Breathing_Light_Duty) for Time3Breathing_Light_Duty
    main.o(i.LED_Status_Control) refers to gpio.o(i.Gpio_ClrIO) for Gpio_ClrIO
    main.o(i.LED_Status_Control) refers to gpio.o(i.Gpio_SetIO) for Gpio_SetIO
    main.o(i.LED_Status_Control) refers to main.o(.bss) for MassageHandler
    main.o(i.LED_Status_Control) refers to main.o(.data) for Led_status_Old
    main.o(i.Motor_vibration_Control) refers to gpio.o(i.Gpio_SetIO) for Gpio_SetIO
    main.o(i.Motor_vibration_Control) refers to gpio.o(i.Gpio_ClrIO) for Gpio_ClrIO
    main.o(i.Motor_vibration_Control) refers to main.o(.data) for Motor_Vibr_Control
    main.o(i.PeripheralBatterySwInit) refers to sysctrl.o(i.Sysctrl_SetPeripheralGate) for Sysctrl_SetPeripheralGate
    main.o(i.PeripheralBatterySwInit) refers to ddl.o(i.ddl_memclr) for ddl_memclr
    main.o(i.PeripheralBatterySwInit) refers to gpio.o(i.Gpio_Init) for Gpio_Init
    main.o(i.PeripheralBatterySwInit) refers to gpio.o(i.Gpio_ClrIO) for Gpio_ClrIO
    main.o(i.SoftTimeTask) refers to main.o(.data) for softtime_Count_1ms
    main.o(i.SoftTimeTask) refers to key.o(.data) for keyDataHandler
    main.o(i.SoftTimeTask) refers to main.o(.bss) for MassageHandler
    main.o(i.SoftTimerCount) refers to main.o(i.SoftTimeTask) for SoftTimeTask
    main.o(i.SysEnterSleepMode) refers to ddl.o(i.ddl_memclr) for ddl_memclr
    main.o(i.SysEnterSleepMode) refers to lpm.o(i.Lpm_Config) for Lpm_Config
    main.o(i.SysEnterSleepMode) refers to lpm.o(i.Lpm_GotoLpmMode) for Lpm_GotoLpmMode
    main.o(i.key_Delay_Init) refers to main.o(.data) for key_delay_init
    main.o(i.main) refers to main.o(i.ClkInit24M) for ClkInit24M
    main.o(i.main) refers to key.o(i.ExtTrigInterrupteRouseDisable) for ExtTrigInterrupteRouseDisable
    main.o(i.main) refers to main.o(i.HardWareInit) for HardWareInit
    main.o(i.main) refers to timehandler.o(i.breathing_LightInit) for breathing_LightInit
    main.o(i.main) refers to ems.o(i.Ems_Start) for Ems_Start
    main.o(i.main) refers to main.o(i.DeviceDataInit) for DeviceDataInit
    main.o(i.main) refers to ems.o(i.Ems_ParaInit) for Ems_ParaInit
    main.o(i.main) refers to key.o(i.keyScan) for keyScan
    main.o(i.main) refers to main.o(i.KeyHandler) for KeyHandler
    main.o(i.main) refers to key.o(i.HallSwitchStatusScan) for HallSwitchStatusScan
    main.o(i.main) refers to main.o(i.AdcSampleTask) for AdcSampleTask
    main.o(i.main) refers to main.o(i.Ems_Control_F) for Ems_Control_F
    main.o(i.main) refers to main.o(i.EMS_Status_Check) for EMS_Status_Check
    main.o(i.main) refers to main.o(i.Battery_Status_Check) for Battery_Status_Check
    main.o(i.main) refers to main.o(i.LED_Status_Control) for LED_Status_Control
    main.o(i.main) refers to main.o(i.Motor_vibration_Control) for Motor_vibration_Control
    main.o(i.main) refers to uarthandler.o(i.UartDataParseHandler) for UartDataParseHandler
    main.o(i.main) refers to main.o(i.LowPowerHandler) for LowPowerHandler
    main.o(i.main) refers to main.o(i.key_Delay_Init) for key_Delay_Init
    main.o(i.peripheralInit) refers to sysctrl.o(i.Sysctrl_SetPeripheralGate) for Sysctrl_SetPeripheralGate
    main.o(i.peripheralInit) refers to gpio.o(i.Gpio_Init) for Gpio_Init
    main.o(i.peripheralInit) refers to gpio.o(i.Gpio_ClrIO) for Gpio_ClrIO
    key.o(i.Battery_Chg_Compl_Status_Check) refers to gpio.o(i.Gpio_GetInputIO) for Gpio_GetInputIO
    key.o(i.Battery_Chg_Compl_Status_Check) refers to key.o(.data) for TempErrcount
    key.o(i.Battery_Chg_Compl_Status_Init) refers to sysctrl.o(i.Sysctrl_SetPeripheralGate) for Sysctrl_SetPeripheralGate
    key.o(i.Battery_Chg_Compl_Status_Init) refers to gpio.o(i.Gpio_Init) for Gpio_Init
    key.o(i.Battery_Chg_Status_Disable_IRQ) refers to gpio.o(i.Gpio_DisableIrq) for Gpio_DisableIrq
    key.o(i.Battery_Chg_Status_Enable_IRQ) refers to key.o(i.Battery_Chg_Status_Pin_Init) for Battery_Chg_Status_Pin_Init
    key.o(i.Battery_Chg_Status_Enable_IRQ) refers to gpio.o(i.Gpio_EnableIrq) for Gpio_EnableIrq
    key.o(i.Battery_Chg_Status_Enable_IRQ) refers to interrupts_hc32l136.o(i.EnableNvic) for EnableNvic
    key.o(i.Battery_Chg_Status_Pin_Init) refers to sysctrl.o(i.Sysctrl_SetPeripheralGate) for Sysctrl_SetPeripheralGate
    key.o(i.Battery_Chg_Status_Pin_Init) refers to gpio.o(i.Gpio_Init) for Gpio_Init
    key.o(i.Battery_Chg_Status_Pin_Scan) refers to gpio.o(i.Gpio_GetInputIO) for Gpio_GetInputIO
    key.o(i.Battery_Chg_Status_Pin_Scan) refers to key.o(.data) for Chg_Status_CheckHandler
    key.o(i.Battery_Chg_Status_Pin_Scan) refers to main.o(.bss) for MassageHandler
    key.o(i.EMS_Port_Check_Pin_Init) refers to sysctrl.o(i.Sysctrl_SetPeripheralGate) for Sysctrl_SetPeripheralGate
    key.o(i.EMS_Port_Check_Pin_Init) refers to gpio.o(i.Gpio_Init) for Gpio_Init
    key.o(i.EMS_Port_Check_Pin_Init) refers to gpio.o(i.Gpio_EnableIrq) for Gpio_EnableIrq
    key.o(i.EMS_Port_Check_Pin_Init) refers to interrupts_hc32l136.o(i.EnableNvic) for EnableNvic
    key.o(i.EMS_Port_Pin_Disable_IRQ) refers to gpio.o(i.Gpio_DisableIrq) for Gpio_DisableIrq
    key.o(i.EMS_Port_Pin_Enable_IRQ) refers to gpio.o(i.Gpio_EnableIrq) for Gpio_EnableIrq
    key.o(i.EMS_Port_Pin_Enable_IRQ) refers to interrupts_hc32l136.o(i.EnableNvic) for EnableNvic
    key.o(i.EMS_Port_Pin_Status) refers to key.o(.data) for Ems_Status_Check
    key.o(i.EMS_Port_Pin_Status) refers to main.o(.bss) for MassageHandler
    key.o(i.ExtTrigInterrupteRouseDisable) refers to key.o(i.KeyDisableIRQ) for KeyDisableIRQ
    key.o(i.ExtTrigInterrupteRouseDisable) refers to key.o(i.Battery_Chg_Status_Disable_IRQ) for Battery_Chg_Status_Disable_IRQ
    key.o(i.ExtTrigInterrupteRouseDisable) refers to key.o(i.HallSwitchTrigTouchKeyInitDisable) for HallSwitchTrigTouchKeyInitDisable
    key.o(i.ExtTrigInterrupteRouseEnable) refers to key.o(i.KeyEnableIRQ) for KeyEnableIRQ
    key.o(i.ExtTrigInterrupteRouseEnable) refers to key.o(i.Battery_Chg_Status_Enable_IRQ) for Battery_Chg_Status_Enable_IRQ
    key.o(i.ExtTrigInterrupteRouseEnable) refers to key.o(i.HallSwitchTrigInterrupteIRQEnable) for HallSwitchTrigInterrupteIRQEnable
    key.o(i.Gpio_IRQHandler) refers to gpio.o(i.Gpio_GetIrqStatus) for Gpio_GetIrqStatus
    key.o(i.Gpio_IRQHandler) refers to gpio.o(i.Gpio_ClearIrq) for Gpio_ClearIrq
    key.o(i.Gpio_IRQHandler) refers to key.o(.data) for Ems_Status_Check
    key.o(i.HallSwitchStatusScan) refers to gpio.o(i.Gpio_GetInputIO) for Gpio_GetInputIO
    key.o(i.HallSwitchStatusScan) refers to key.o(.data) for HallSwitchScan
    key.o(i.HallSwitchStatusScan) refers to main.o(.bss) for MassageHandler
    key.o(i.HallSwitchStatusScan) refers to main.o(.data) for LowPowerControl
    key.o(i.HallSwitchTrigInterrupteIRQEnable) refers to gpio.o(i.Gpio_SfIrqModeConfig) for Gpio_SfIrqModeConfig
    key.o(i.HallSwitchTrigInterrupteIRQEnable) refers to gpio.o(i.Gpio_EnableIrq) for Gpio_EnableIrq
    key.o(i.HallSwitchTrigInterrupteIRQEnable) refers to interrupts_hc32l136.o(i.EnableNvic) for EnableNvic
    key.o(i.HallSwitchTrigTouchKeyInit) refers to ddl.o(i.ddl_memclr) for ddl_memclr
    key.o(i.HallSwitchTrigTouchKeyInit) refers to gpio.o(i.Gpio_Init) for Gpio_Init
    key.o(i.HallSwitchTrigTouchKeyInitDisable) refers to gpio.o(i.Gpio_DisableIrq) for Gpio_DisableIrq
    key.o(i.KeyDisableIRQ) refers to gpio.o(i.Gpio_DisableIrq) for Gpio_DisableIrq
    key.o(i.KeyEnableIRQ) refers to gpio.o(i.Gpio_SfIrqModeConfig) for Gpio_SfIrqModeConfig
    key.o(i.KeyEnableIRQ) refers to gpio.o(i.Gpio_EnableIrq) for Gpio_EnableIrq
    key.o(i.KeyEnableIRQ) refers to interrupts_hc32l136.o(i.EnableNvic) for EnableNvic
    key.o(i.KeyInit) refers to sysctrl.o(i.Sysctrl_SetPeripheralGate) for Sysctrl_SetPeripheralGate
    key.o(i.KeyInit) refers to sysctrl.o(i.Sysctrl_SetFunc) for Sysctrl_SetFunc
    key.o(i.KeyInit) refers to gpio.o(i.Gpio_Init) for Gpio_Init
    key.o(i.KeyInit2) refers to sysctrl.o(i.Sysctrl_SetPeripheralGate) for Sysctrl_SetPeripheralGate
    key.o(i.KeyInit2) refers to sysctrl.o(i.Sysctrl_SetFunc) for Sysctrl_SetFunc
    key.o(i.KeyInit2) refers to gpio.o(i.Gpio_Init) for Gpio_Init
    key.o(i.keyScan) refers to gpio.o(i.Gpio_GetInputIO) for Gpio_GetInputIO
    key.o(i.keyScan) refers to key.o(.data) for keyDataHandler
    adcsample.o(i.AdcSampleInit) refers to sysctrl.o(i.Sysctrl_SetPeripheralGate) for Sysctrl_SetPeripheralGate
    adcsample.o(i.AdcSampleInit) refers to ddl.o(i.ddl_memclr) for ddl_memclr
    adcsample.o(i.AdcSampleInit) refers to gpio.o(i.Gpio_SetAnalogMode) for Gpio_SetAnalogMode
    adcsample.o(i.AdcSampleInit) refers to gpio.o(i.Gpio_Init) for Gpio_Init
    adcsample.o(i.AdcSampleInit) refers to adc.o(i.Adc_Enable) for Adc_Enable
    adcsample.o(i.AdcSampleInit) refers to adcsample.o(i.Delay_us) for Delay_us
    adcsample.o(i.AdcSampleInit) refers to adc.o(i.Adc_Init) for Adc_Init
    adcsample.o(i.AdcSampleInit) refers to adc.o(i.Adc_SetVref) for Adc_SetVref
    adcsample.o(i.AdcSampleInit) refers to adc.o(i.Adc_ConfigSqrChannel) for Adc_ConfigSqrChannel
    adcsample.o(i.AdcSampleInit) refers to adc.o(i.Adc_ConfigSqrMode) for Adc_ConfigSqrMode
    adcsample.o(i.AdcSampleInit) refers to adc.o(i.Adc_ConfigDmaTrig) for Adc_ConfigDmaTrig
    adcsample.o(i.AdcSampleInit) refers to dmac.o(i.Dma_InitChannel) for Dma_InitChannel
    adcsample.o(i.AdcSampleInit) refers to dmac.o(i.Dma_EnableChannelIrq) for Dma_EnableChannelIrq
    adcsample.o(i.AdcSampleInit) refers to interrupts_hc32l136.o(i.EnableNvic) for EnableNvic
    adcsample.o(i.AdcSampleInit) refers to dmac.o(i.Dma_ConfigIrq) for Dma_ConfigIrq
    adcsample.o(i.AdcSampleInit) refers to dmac.o(i.Dma_Enable) for Dma_Enable
    adcsample.o(i.AdcSampleInit) refers to dmac.o(i.Dma_EnableChannel) for Dma_EnableChannel
    adcsample.o(i.AdcSampleInit) refers to dmac.o(i.Dma_Start) for Dma_Start
    adcsample.o(i.AdcSampleInit) refers to adc.o(i.Adc_SQR_Start) for Adc_SQR_Start
    adcsample.o(i.AdcSampleInit) refers to adcsample.o(.bss) for ADC_Result_Array
    adcsample.o(i.AdcSampleInit) refers to adcsample.o(i.DmaContIrqCallback) for DmaContIrqCallback
    adcsample.o(i.AdcSampleSleepInit) refers to sysctrl.o(i.Sysctrl_SetPeripheralGate) for Sysctrl_SetPeripheralGate
    adcsample.o(i.AdcSampleSleepInit) refers to adc.o(i.Adc_Disable) for Adc_Disable
    adcsample.o(i.AdcSampleSleepInit) refers to dmac.o(i.Dma_Stop) for Dma_Stop
    adcsample.o(i.DmaContIrqCallback) refers to main.o(.data) for IRQ_Start_Enable
    ems.o(i.BoostVoltageControl) refers to uidiv.o(.text) for __aeabi_uidivmod
    ems.o(i.BoostVoltageControl) refers to timehandler.o(i.Boost_Pwm) for Boost_Pwm
    ems.o(i.BoostVoltageControl) refers to main.o(.bss) for VoltageSampleBuff
    ems.o(i.BoostVoltageControl) refers to ems.o(.data) for Ems_Control
    ems.o(i.EMSControlHandler) refers to main.o(i.__ARM_common_switch8) for __ARM_common_switch8
    ems.o(i.EMSControlHandler) refers to ems.o(i.BoostVoltageControl) for BoostVoltageControl
    ems.o(i.EMSControlHandler) refers to util.o(i.CompareParaSize) for CompareParaSize
    ems.o(i.EMSControlHandler) refers to main.o(.bss) for MassageHandler
    ems.o(i.EMSControlHandler) refers to ems.o(.data) for StrengUpdateControl
    ems.o(i.EMSControlHandler) refers to ems.o(.bss) for PwmProcessDataHandler
    ems.o(i.EMS_PwmControl) refers to main.o(i.__ARM_common_switch8) for __ARM_common_switch8
    ems.o(i.EMS_PwmControl) refers to ems.o(i.MassagePwmIdleHandler) for MassagePwmIdleHandler
    ems.o(i.EMS_PwmControl) refers to ems.o(i.MassagePwmCHandler) for MassagePwmCHandler
    ems.o(i.EMS_PwmControl) refers to ems.o(i.Massage3DModelPwmCHandler) for Massage3DModelPwmCHandler
    ems.o(i.EMS_PwmControl) refers to main.o(.bss) for MassageHandler
    ems.o(i.Ems_2DParaInit) refers to timehandler.o(i.TimestampUpdateFreq) for TimestampUpdateFreq
    ems.o(i.Ems_2DParaInit) refers to main.o(.bss) for MassageHandler
    ems.o(i.Ems_2DParaInit) refers to ems.o(.data) for MassageModeArray
    ems.o(i.Ems_2DParaInit) refers to ems.o(.bss) for PwmProcessDataHandler
    ems.o(i.Ems_3DParaInit) refers to timehandler.o(i.TimestampUpdateFreq) for TimestampUpdateFreq
    ems.o(i.Ems_3DParaInit) refers to main.o(.bss) for MassageHandler
    ems.o(i.Ems_3DParaInit) refers to ems.o(.data) for KnockMode3DMassage
    ems.o(i.Ems_3DParaInit) refers to ems.o(.bss) for PwmProcessDataHandler
    ems.o(i.Ems_IDLEParaInit) refers to timehandler.o(i.TimestampUpdateFreq) for TimestampUpdateFreq
    ems.o(i.Ems_IDLEParaInit) refers to main.o(.bss) for MassageHandler
    ems.o(i.Ems_IDLEParaInit) refers to ems.o(.data) for MassageIDLEStatus
    ems.o(i.Ems_IDLEParaInit) refers to ems.o(.bss) for PwmProcessDataHandler
    ems.o(i.Ems_Output_Close) refers to timehandler.o(i.Boost_Pwm) for Boost_Pwm
    ems.o(i.Ems_Output_Close) refers to ems.o(.data) for Ems_Control
    ems.o(i.Ems_ParaInit) refers to main.o(i.__ARM_common_switch8) for __ARM_common_switch8
    ems.o(i.Ems_ParaInit) refers to ems.o(i.Ems_IDLEParaInit) for Ems_IDLEParaInit
    ems.o(i.Ems_ParaInit) refers to ems.o(i.Ems_2DParaInit) for Ems_2DParaInit
    ems.o(i.Ems_ParaInit) refers to ems.o(i.Ems_3DParaInit) for Ems_3DParaInit
    ems.o(i.Ems_ParaInit) refers to main.o(.bss) for MassageHandler
    ems.o(i.Ems_Start) refers to timehandler.o(i.Boost_Start) for Boost_Start
    ems.o(i.Ems_Start) refers to timehandler.o(i.TimestampStart) for TimestampStart
    ems.o(i.Ems_Stop) refers to timehandler.o(i.TimestampStop) for TimestampStop
    ems.o(i.Ems_Stop) refers to timehandler.o(i.Boost_Stop) for Boost_Stop
    ems.o(i.Massage3DModelPwmCHandler) refers to idiv.o(.text) for __aeabi_idivmod
    ems.o(i.Massage3DModelPwmCHandler) refers to timehandler.o(i.TimestampUpdateFreq) for TimestampUpdateFreq
    ems.o(i.Massage3DModelPwmCHandler) refers to main.o(.bss) for MassageHandler
    ems.o(i.Massage3DModelPwmCHandler) refers to ems.o(.data) for KnockMode3DMassage
    ems.o(i.Massage3DModelPwmCHandler) refers to ems.o(.bss) for PwmProcessDataHandler
    ems.o(i.MassagePwmCHandler) refers to main.o(i.__ARM_common_switch8) for __ARM_common_switch8
    ems.o(i.MassagePwmCHandler) refers to idiv.o(.text) for __aeabi_idivmod
    ems.o(i.MassagePwmCHandler) refers to timehandler.o(i.TimestampUpdateFreq) for TimestampUpdateFreq
    ems.o(i.MassagePwmCHandler) refers to main.o(.bss) for MassageHandler
    ems.o(i.MassagePwmCHandler) refers to ems.o(.data) for MassageModeArray
    ems.o(i.MassagePwmCHandler) refers to ems.o(.bss) for PwmProcessDataHandler
    ems.o(i.MassagePwmIdleHandler) refers to main.o(i.__ARM_common_switch8) for __ARM_common_switch8
    ems.o(i.MassagePwmIdleHandler) refers to idiv.o(.text) for __aeabi_idivmod
    ems.o(i.MassagePwmIdleHandler) refers to timehandler.o(i.TimestampUpdateFreq) for TimestampUpdateFreq
    ems.o(i.MassagePwmIdleHandler) refers to ems.o(.data) for MassageIDLEStatus
    ems.o(i.MassagePwmIdleHandler) refers to ems.o(.bss) for PwmProcessDataHandler
    ems.o(i.MassagePwmIdleHandler) refers to main.o(.bss) for MassageHandler
    ems.o(i._DirABAuto_And_CDAuto_PN) refers to ems_port.o(i.EmsABAuto_And_CDAuto_PN) for EmsABAuto_And_CDAuto_PN
    ems.o(i._DirABC_T_D_PN) refers to ems_port.o(i.EmsABC_T_D_PN) for EmsABC_T_D_PN
    ems.o(i._DirABD_T_C_PN) refers to ems_port.o(i.EmsABD_T_C_PN) for EmsABD_T_C_PN
    ems.o(i._DirAB_And_CD_DisCharge) refers to ems_port.o(i.Ems_AB_And_CD_Discharge) for Ems_AB_And_CD_Discharge
    ems.o(i._DirACAutO_And_BDAut0_PN) refers to ems_port.o(i.EmsACAutO_And_BDAuto_PN) for EmsACAutO_And_BDAuto_PN
    ems.o(i._DirACD_T_B_PN) refers to ems_port.o(i.EmsACD_T_B_PN) for EmsACD_T_B_PN
    ems.o(i._DirADAuto_And_BCAuto_PN) refers to ems_port.o(i.EmsADAuto_And_BCAuto_PN) for EmsADAuto_And_BCAuto_PN
    ems.o(i._DirA_T_B_And_CDAuto_PN) refers to ems_port.o(i.EmsA_T_B_And_CDAuto_PN) for EmsA_T_B_And_CDAuto_PN
    ems.o(i._DirA_T_B_And_CD_No) refers to ems_port.o(i.Ems_A_To_Ems_B_FS_P) for Ems_A_To_Ems_B_FS_P
    ems.o(i._DirA_T_B_And_CD_No) refers to ems_port.o(i.Ems_A_To_Ems_B_FS_N) for Ems_A_To_Ems_B_FS_N
    ems.o(i._DirA_T_B_And_CD_No_PN) refers to ems_port.o(i.Ems_A_T_B_And_CD_No_PN) for Ems_A_T_B_And_CD_No_PN
    ems.o(i._DirA_T_B_And_C_T_D) refers to ems_port.o(i.EmsA_T_B_And_C_T_D) for EmsA_T_B_And_C_T_D
    ems.o(i._DirA_T_B_And_D_T_C) refers to ems_port.o(i.EmsA_T_B_And_D_T_C) for EmsA_T_B_And_D_T_C
    ems.o(i._DirA_T_C_And_BDAuto_PN) refers to ems_port.o(i.EmsA_T_C_And_BDAuto_PN) for EmsA_T_C_And_BDAuto_PN
    ems.o(i._DirA_T_C_And_BD_No) refers to ems_port.o(i.EmsA_T_C_And_BD_No_PN) for EmsA_T_C_And_BD_No_PN
    ems.o(i._DirA_T_C_And_BD_No_PN) refers to ems_port.o(i.EmsA_T_C_And_BD_No_PN) for EmsA_T_C_And_BD_No_PN
    ems.o(i._DirA_T_C_And_B_T_D) refers to ems_port.o(i.EmsA_T_C_And_B_T_D) for EmsA_T_C_And_B_T_D
    ems.o(i._DirA_T_C_And_D_T_B) refers to ems_port.o(i.EmsA_T_C_And_D_T_B) for EmsA_T_C_And_D_T_B
    ems.o(i._DirA_T_D_And_BCAuto_PN) refers to ems_port.o(i.EmsA_T_D_And_BCAuto_PN) for EmsA_T_D_And_BCAuto_PN
    ems.o(i._DirA_T_D_And_BC_No) refers to ems_port.o(i.EmsA_T_D_And_BC_No_PN) for EmsA_T_D_And_BC_No_PN
    ems.o(i._DirA_T_D_And_BC_No_PN) refers to ems_port.o(i.EmsA_T_D_And_BC_No_PN) for EmsA_T_D_And_BC_No_PN
    ems.o(i._DirA_T_D_And_B_T_C) refers to ems_port.o(i.EmsA_T_D_And_B_T_C) for EmsA_T_D_And_B_T_C
    ems.o(i._DirA_T_D_And_C_T_B) refers to ems_port.o(i.EmsA_T_D_And_C_T_B) for EmsA_T_D_And_C_T_B
    ems.o(i._DirB_T_A_And_CDAuto_PN) refers to ems_port.o(i.EmsB_T_A_And_CDAuto_PN) for EmsB_T_A_And_CDAuto_PN
    ems.o(i._DirB_T_A_And_CD_No) refers to ems_port.o(i.Ems_A_To_Ems_B_FS_N) for Ems_A_To_Ems_B_FS_N
    ems.o(i._DirB_T_A_And_CD_No_PN) refers to ems_port.o(i.EmsB_T_A_And_CD_No_PN) for EmsB_T_A_And_CD_No_PN
    ems.o(i._DirB_T_A_And_C_T_D) refers to ems_port.o(i.EmsB_T_A_And_C_T_D) for EmsB_T_A_And_C_T_D
    ems.o(i._DirB_T_A_And_D_T_C) refers to ems_port.o(i.EmsB_T_A_And_D_T_C) for EmsB_T_A_And_D_T_C
    ems.o(i._DirB_T_C_And_ADAuto_PN) refers to ems_port.o(i.EmsB_T_C_And_ADAuto_PN) for EmsB_T_C_And_ADAuto_PN
    ems.o(i._DirB_T_C_And_AD_No) refers to ems_port.o(i.EmsB_T_C_And_AD_No_PN) for EmsB_T_C_And_AD_No_PN
    ems.o(i._DirB_T_C_And_AD_No_PN) refers to ems_port.o(i.EmsB_T_C_And_AD_No_PN) for EmsB_T_C_And_AD_No_PN
    ems.o(i._DirB_T_C_And_A_T_D) refers to ems_port.o(i.EmsB_T_C_And_A_T_D) for EmsB_T_C_And_A_T_D
    ems.o(i._DirB_T_C_And_D_T_A) refers to ems_port.o(i.EmsB_T_C_And_D_T_A) for EmsB_T_C_And_D_T_A
    ems.o(i._DirB_T_D_And_ACAuto_PN) refers to ems_port.o(i.EmsB_T_D_And_ACAuto_PN) for EmsB_T_D_And_ACAuto_PN
    ems.o(i._DirB_T_D_And_AC_No) refers to ems_port.o(i.EmsB_T_D_And_AC_No_PN) for EmsB_T_D_And_AC_No_PN
    ems.o(i._DirB_T_D_And_AC_No_PN) refers to ems_port.o(i.EmsB_T_D_And_AC_No_PN) for EmsB_T_D_And_AC_No_PN
    ems.o(i._DirB_T_D_And_A_T_C) refers to ems_port.o(i.EmsB_T_D_And_A_T_C) for EmsB_T_D_And_A_T_C
    ems.o(i._DirB_T_D_And_C_T_A) refers to ems_port.o(i.EmsB_T_D_And_C_T_A) for EmsB_T_D_And_C_T_A
    ems.o(i._DirCBD_T_A_PN) refers to ems_port.o(i.EmsBCD_T_A_PN) for EmsBCD_T_A_PN
    ems.o(i._DirC_T_A_And_BDAuto_PN) refers to ems_port.o(i.EmsC_T_A_And_BDAuto_PN) for EmsC_T_A_And_BDAuto_PN
    ems.o(i._DirC_T_A_And_BD_No) refers to ems_port.o(i.EmsC_T_A_And_BD_No) for EmsC_T_A_And_BD_No
    ems.o(i._DirC_T_A_And_BD_No_PN) refers to ems_port.o(i.EmsC_T_A_And_BD_No_PN) for EmsC_T_A_And_BD_No_PN
    ems.o(i._DirC_T_A_And_B_T_D) refers to ems_port.o(i.EmsC_T_A_And_B_T_D) for EmsC_T_A_And_B_T_D
    ems.o(i._DirC_T_A_And_D_T_B) refers to ems_port.o(i.EmsC_T_A_And_D_T_B) for EmsC_T_A_And_D_T_B
    ems.o(i._DirC_T_B_And_ADAuto_PN) refers to ems_port.o(i.EmsC_T_B_And_ADAuto_PN) for EmsC_T_B_And_ADAuto_PN
    ems.o(i._DirC_T_B_And_AD_No) refers to ems_port.o(i.EmsC_T_B_And_AD_No) for EmsC_T_B_And_AD_No
    ems.o(i._DirC_T_B_And_AD_No_PN) refers to ems_port.o(i.EmsC_T_B_And_AD_No_PN) for EmsC_T_B_And_AD_No_PN
    ems.o(i._DirC_T_B_And_A_T_D) refers to ems_port.o(i.EmsC_T_B_And_A_T_D) for EmsC_T_B_And_A_T_D
    ems.o(i._DirC_T_B_And_D_T_A) refers to ems_port.o(i.EmsC_T_B_And_D_T_A) for EmsC_T_B_And_D_T_A
    ems.o(i._DirC_T_D_And_ABAuto_PN) refers to ems_port.o(i.EmsC_T_D_And_ABAuto_PN) for EmsC_T_D_And_ABAuto_PN
    ems.o(i._DirC_T_D_And_AB_No) refers to ems_port.o(i.EmsC_T_D_And_AB_No) for EmsC_T_D_And_AB_No
    ems.o(i._DirC_T_D_And_AB_No_PN) refers to ems_port.o(i.EmsC_T_D_And_AB_No_PN) for EmsC_T_D_And_AB_No_PN
    ems.o(i._DirC_T_D_And_A_T_B) refers to ems_port.o(i.EmsC_T_D_And_A_T_B) for EmsC_T_D_And_A_T_B
    ems.o(i._DirC_T_D_And_B_T_A) refers to ems_port.o(i.EmsC_T_D_And_B_T_A) for EmsC_T_D_And_B_T_A
    ems.o(i._DirD_T_A_And_BC_AutO_PN) refers to ems_port.o(i.EmsD_T_A_And_BC_AutO_PN) for EmsD_T_A_And_BC_AutO_PN
    ems.o(i._DirD_T_A_And_BC_No_PN) refers to ems_port.o(i.EmsD_T_A_And_BC_No_PN) for EmsD_T_A_And_BC_No_PN
    ems.o(i._DirD_T_A_And_B_T_C) refers to ems_port.o(i.EmsD_T_A_And_B_T_C) for EmsD_T_A_And_B_T_C
    ems.o(i._DirD_T_A_And_CB_No) refers to ems_port.o(i.EmsD_T_A_And_BC_No_PN) for EmsD_T_A_And_BC_No_PN
    ems.o(i._DirD_T_A_And_C_T_B) refers to ems_port.o(i.EmsD_T_A_And_C_T_B) for EmsD_T_A_And_C_T_B
    ems.o(i._DirD_T_B_And_AC_No_PN) refers to ems_port.o(i.EmsD_T_B_And_AC_No_PN) for EmsD_T_B_And_AC_No_PN
    ems.o(i._DirD_T_C_And_AB_No_PN) refers to ems_port.o(i.EmsD_T_C_And_AB_No_PN) for EmsD_T_C_And_AB_No_PN
    ems.o(.data) refers to ems.o(i._DirAB_And_CD_IDLE) for _DirAB_And_CD_IDLE
    ems.o(.data) refers to ems.o(i._DirAB_And_CD_DisCharge) for _DirAB_And_CD_DisCharge
    ems.o(.data) refers to ems.o(i._DirA_T_B_And_CD_No) for _DirA_T_B_And_CD_No
    ems.o(.data) refers to ems.o(i._DirA_T_B_And_C_T_D) for _DirA_T_B_And_C_T_D
    ems.o(.data) refers to ems.o(i._DirA_T_B_And_D_T_C) for _DirA_T_B_And_D_T_C
    ems.o(.data) refers to ems.o(i._DirA_T_B_And_CDAuto_PN) for _DirA_T_B_And_CDAuto_PN
    ems.o(.data) refers to ems.o(i._DirA_T_C_And_BD_No) for _DirA_T_C_And_BD_No
    ems.o(.data) refers to ems.o(i._DirA_T_C_And_B_T_D) for _DirA_T_C_And_B_T_D
    ems.o(.data) refers to ems.o(i._DirA_T_C_And_D_T_B) for _DirA_T_C_And_D_T_B
    ems.o(.data) refers to ems.o(i._DirA_T_C_And_BDAuto_PN) for _DirA_T_C_And_BDAuto_PN
    ems.o(.data) refers to ems.o(i._DirA_T_D_And_BC_No) for _DirA_T_D_And_BC_No
    ems.o(.data) refers to ems.o(i._DirA_T_D_And_B_T_C) for _DirA_T_D_And_B_T_C
    ems.o(.data) refers to ems.o(i._DirA_T_D_And_C_T_B) for _DirA_T_D_And_C_T_B
    ems.o(.data) refers to ems.o(i._DirA_T_D_And_BCAuto_PN) for _DirA_T_D_And_BCAuto_PN
    ems.o(.data) refers to ems.o(i._DirB_T_A_And_CD_No) for _DirB_T_A_And_CD_No
    ems.o(.data) refers to ems.o(i._DirB_T_A_And_C_T_D) for _DirB_T_A_And_C_T_D
    ems.o(.data) refers to ems.o(i._DirB_T_A_And_D_T_C) for _DirB_T_A_And_D_T_C
    ems.o(.data) refers to ems.o(i._DirB_T_A_And_CDAuto_PN) for _DirB_T_A_And_CDAuto_PN
    ems.o(.data) refers to ems.o(i._DirB_T_C_And_AD_No) for _DirB_T_C_And_AD_No
    ems.o(.data) refers to ems.o(i._DirB_T_C_And_A_T_D) for _DirB_T_C_And_A_T_D
    ems.o(.data) refers to ems.o(i._DirB_T_C_And_D_T_A) for _DirB_T_C_And_D_T_A
    ems.o(.data) refers to ems.o(i._DirB_T_C_And_ADAuto_PN) for _DirB_T_C_And_ADAuto_PN
    ems.o(.data) refers to ems.o(i._DirB_T_D_And_AC_No) for _DirB_T_D_And_AC_No
    ems.o(.data) refers to ems.o(i._DirB_T_D_And_A_T_C) for _DirB_T_D_And_A_T_C
    ems.o(.data) refers to ems.o(i._DirB_T_D_And_C_T_A) for _DirB_T_D_And_C_T_A
    ems.o(.data) refers to ems.o(i._DirB_T_D_And_ACAuto_PN) for _DirB_T_D_And_ACAuto_PN
    ems.o(.data) refers to ems.o(i._DirC_T_A_And_BD_No) for _DirC_T_A_And_BD_No
    ems.o(.data) refers to ems.o(i._DirC_T_A_And_B_T_D) for _DirC_T_A_And_B_T_D
    ems.o(.data) refers to ems.o(i._DirC_T_A_And_D_T_B) for _DirC_T_A_And_D_T_B
    ems.o(.data) refers to ems.o(i._DirC_T_A_And_BDAuto_PN) for _DirC_T_A_And_BDAuto_PN
    ems.o(.data) refers to ems.o(i._DirC_T_B_And_AD_No) for _DirC_T_B_And_AD_No
    ems.o(.data) refers to ems.o(i._DirC_T_B_And_A_T_D) for _DirC_T_B_And_A_T_D
    ems.o(.data) refers to ems.o(i._DirC_T_B_And_D_T_A) for _DirC_T_B_And_D_T_A
    ems.o(.data) refers to ems.o(i._DirC_T_B_And_ADAuto_PN) for _DirC_T_B_And_ADAuto_PN
    ems.o(.data) refers to ems.o(i._DirC_T_D_And_AB_No) for _DirC_T_D_And_AB_No
    ems.o(.data) refers to ems.o(i._DirC_T_D_And_A_T_B) for _DirC_T_D_And_A_T_B
    ems.o(.data) refers to ems.o(i._DirC_T_D_And_B_T_A) for _DirC_T_D_And_B_T_A
    ems.o(.data) refers to ems.o(i._DirC_T_D_And_ABAuto_PN) for _DirC_T_D_And_ABAuto_PN
    ems.o(.data) refers to ems.o(i._DirD_T_A_And_CB_No) for _DirD_T_A_And_CB_No
    ems.o(.data) refers to ems.o(i._DirD_T_A_And_C_T_B) for _DirD_T_A_And_C_T_B
    ems.o(.data) refers to ems.o(i._DirD_T_A_And_B_T_C) for _DirD_T_A_And_B_T_C
    ems.o(.data) refers to ems.o(i._DirD_T_A_And_BC_AutO_PN) for _DirD_T_A_And_BC_AutO_PN
    ems.o(.data) refers to ems.o(i._DirA_T_B_And_CD_No_PN) for _DirA_T_B_And_CD_No_PN
    ems.o(.data) refers to ems.o(i._DirA_T_C_And_BD_No_PN) for _DirA_T_C_And_BD_No_PN
    ems.o(.data) refers to ems.o(i._DirA_T_D_And_BC_No_PN) for _DirA_T_D_And_BC_No_PN
    ems.o(.data) refers to ems.o(i._DirB_T_A_And_CD_No_PN) for _DirB_T_A_And_CD_No_PN
    ems.o(.data) refers to ems.o(i._DirB_T_C_And_AD_No_PN) for _DirB_T_C_And_AD_No_PN
    ems.o(.data) refers to ems.o(i._DirB_T_D_And_AC_No_PN) for _DirB_T_D_And_AC_No_PN
    ems.o(.data) refers to ems.o(i._DirC_T_A_And_BD_No_PN) for _DirC_T_A_And_BD_No_PN
    ems.o(.data) refers to ems.o(i._DirC_T_B_And_AD_No_PN) for _DirC_T_B_And_AD_No_PN
    ems.o(.data) refers to ems.o(i._DirC_T_D_And_AB_No_PN) for _DirC_T_D_And_AB_No_PN
    ems.o(.data) refers to ems.o(i._DirD_T_A_And_BC_No_PN) for _DirD_T_A_And_BC_No_PN
    ems.o(.data) refers to ems.o(i._DirD_T_B_And_AC_No_PN) for _DirD_T_B_And_AC_No_PN
    ems.o(.data) refers to ems.o(i._DirD_T_C_And_AB_No_PN) for _DirD_T_C_And_AB_No_PN
    ems.o(.data) refers to ems.o(i._DirABC_T_D_PN) for _DirABC_T_D_PN
    ems.o(.data) refers to ems.o(i._DirABD_T_C_PN) for _DirABD_T_C_PN
    ems.o(.data) refers to ems.o(i._DirACD_T_B_PN) for _DirACD_T_B_PN
    ems.o(.data) refers to ems.o(i._DirCBD_T_A_PN) for _DirCBD_T_A_PN
    ems.o(.data) refers to ems.o(i._DirABAuto_And_CDAuto_PN) for _DirABAuto_And_CDAuto_PN
    ems.o(.data) refers to ems.o(i._DirACAutO_And_BDAut0_PN) for _DirACAutO_And_BDAut0_PN
    ems.o(.data) refers to ems.o(i._DirADAuto_And_BCAuto_PN) for _DirADAuto_And_BCAuto_PN
    ems.o(.data) refers to ems.o(i.ModifyOne) for ModifyOne
    ems.o(.data) refers to ems.o(i.ModifyTwo) for ModifyTwo
    ems.o(.data) refers to ems_port.o(i.Ems_A_To_Ems_B_Double) for Ems_A_To_Ems_B_Double
    ems.o(.data) refers to ems_port.o(i.Ems_AB_And_CD_Four) for Ems_AB_And_CD_Four
    ems.o(.data) refers to ems_port.o(i.Ems_A_To_Ems_B_Single_P) for Ems_A_To_Ems_B_Single_P
    ems.o(.data) refers to ems_port.o(i.Ems_AToB_Ems_CToD_FS_P) for Ems_AToB_Ems_CToD_FS_P
    ems.o(.data) refers to ems_port.o(i.Ems_A_To_Ems_B_Single_N) for Ems_A_To_Ems_B_Single_N
    ems.o(.data) refers to ems_port.o(i.Ems_AToB_Ems_CToD_FS_N) for Ems_AToB_Ems_CToD_FS_N
    ems.o(.data) refers to ems_port.o(i.Ems_A_To_Ems_B_PNAlter_P) for Ems_A_To_Ems_B_PNAlter_P
    ems.o(.data) refers to ems_port.o(i.Ems_AToB_And_Ems_CToD_PNAlter_P) for Ems_AToB_And_Ems_CToD_PNAlter_P
    ems.o(.data) refers to ems_port.o(i.Ems_A_To_Ems_B_PNAlter_N) for Ems_A_To_Ems_B_PNAlter_N
    ems.o(.data) refers to ems_port.o(i.Ems_AToB_And_Ems_CToD_PNAlter_N) for Ems_AToB_And_Ems_CToD_PNAlter_N
    util.o(i.SampleFilterFloatHandler) refers to fadd.o(.text) for __aeabi_fadd
    util.o(i.SampleFilterFloatHandler) refers to ffltui.o(.text) for __aeabi_ui2f
    util.o(i.SampleFilterFloatHandler) refers to cfcmple.o(.text) for __aeabi_cfcmple
    util.o(i.SampleFilterFloatHandler) refers to ffixui.o(.text) for __aeabi_f2uiz
    util.o(i.SampleFilterFloatHandler) refers to cfrcmple.o(.text) for __aeabi_cfrcmple
    util.o(i.SampleFilterFloatHandler) refers to fdiv.o(.text) for __aeabi_fdiv
    iic.o(i.IIC_ACK) refers to iic.o(i.IIC_SCL_Out_Status) for IIC_SCL_Out_Status
    iic.o(i.IIC_ACK) refers to iic.o(i.IIC_SDA_Out_Dir) for IIC_SDA_Out_Dir
    iic.o(i.IIC_ACK) refers to iic.o(i.IIC_SDA_Out_Status) for IIC_SDA_Out_Status
    iic.o(i.IIC_ACK) refers to iic.o(i.delayTous) for delayTous
    iic.o(i.IIC_Init) refers to iic.o(i.IIC_Port_Init) for IIC_Port_Init
    iic.o(i.IIC_Init) refers to gpio.o(i.Gpio_SetIO) for Gpio_SetIO
    iic.o(i.IIC_NACK) refers to iic.o(i.IIC_SCL_Out_Status) for IIC_SCL_Out_Status
    iic.o(i.IIC_NACK) refers to iic.o(i.IIC_SDA_Out_Dir) for IIC_SDA_Out_Dir
    iic.o(i.IIC_NACK) refers to iic.o(i.IIC_SDA_Out_Status) for IIC_SDA_Out_Status
    iic.o(i.IIC_NACK) refers to iic.o(i.delayTous) for delayTous
    iic.o(i.IIC_Port_Init) refers to gpio.o(i.Gpio_Init) for Gpio_Init
    iic.o(i.IIC_Read_Byte) refers to iic.o(i.IIC_SDA_Out_Dir) for IIC_SDA_Out_Dir
    iic.o(i.IIC_Read_Byte) refers to iic.o(i.IIC_SCL_Out_Status) for IIC_SCL_Out_Status
    iic.o(i.IIC_Read_Byte) refers to iic.o(i.delayTous) for delayTous
    iic.o(i.IIC_Read_Byte) refers to iic.o(i.IIC_SDA_Input_Status) for IIC_SDA_Input_Status
    iic.o(i.IIC_Read_Byte) refers to iic.o(i.IIC_NACK) for IIC_NACK
    iic.o(i.IIC_Read_Byte) refers to iic.o(i.IIC_ACK) for IIC_ACK
    iic.o(i.IIC_SCL_Out_Status) refers to gpio.o(i.Gpio_SetIO) for Gpio_SetIO
    iic.o(i.IIC_SCL_Out_Status) refers to gpio.o(i.Gpio_ClrIO) for Gpio_ClrIO
    iic.o(i.IIC_SDA_Input_Status) refers to gpio.o(i.Gpio_GetInputIO) for Gpio_GetInputIO
    iic.o(i.IIC_SDA_Out_Dir) refers to gpio.o(i.Gpio_Init) for Gpio_Init
    iic.o(i.IIC_SDA_Out_Status) refers to gpio.o(i.Gpio_SetIO) for Gpio_SetIO
    iic.o(i.IIC_SDA_Out_Status) refers to gpio.o(i.Gpio_ClrIO) for Gpio_ClrIO
    iic.o(i.IIC_Send_Byte) refers to iic.o(i.IIC_SDA_Out_Dir) for IIC_SDA_Out_Dir
    iic.o(i.IIC_Send_Byte) refers to iic.o(i.IIC_SCL_Out_Status) for IIC_SCL_Out_Status
    iic.o(i.IIC_Send_Byte) refers to iic.o(i.IIC_SDA_Out_Status) for IIC_SDA_Out_Status
    iic.o(i.IIC_Send_Byte) refers to iic.o(i.delayTous) for delayTous
    iic.o(i.IIC_Start) refers to iic.o(i.IIC_SDA_Out_Dir) for IIC_SDA_Out_Dir
    iic.o(i.IIC_Start) refers to iic.o(i.IIC_SDA_Out_Status) for IIC_SDA_Out_Status
    iic.o(i.IIC_Start) refers to iic.o(i.IIC_SCL_Out_Status) for IIC_SCL_Out_Status
    iic.o(i.IIC_Start) refers to iic.o(i.delayTous) for delayTous
    iic.o(i.IIC_Stop) refers to iic.o(i.IIC_SDA_Out_Dir) for IIC_SDA_Out_Dir
    iic.o(i.IIC_Stop) refers to iic.o(i.IIC_SCL_Out_Status) for IIC_SCL_Out_Status
    iic.o(i.IIC_Stop) refers to iic.o(i.IIC_SDA_Out_Status) for IIC_SDA_Out_Status
    iic.o(i.IIC_Stop) refers to iic.o(i.delayTous) for delayTous
    iic.o(i.IIC_Waite_ACK) refers to iic.o(i.IIC_SDA_Out_Dir) for IIC_SDA_Out_Dir
    iic.o(i.IIC_Waite_ACK) refers to iic.o(i.IIC_SCL_Out_Status) for IIC_SCL_Out_Status
    iic.o(i.IIC_Waite_ACK) refers to iic.o(i.delayTous) for delayTous
    iic.o(i.IIC_Waite_ACK) refers to iic.o(i.IIC_SDA_Out_Status) for IIC_SDA_Out_Status
    iic.o(i.IIC_Waite_ACK) refers to iic.o(i.IIC_Stop) for IIC_Stop
    iic.o(i.IIC_Waite_ACK) refers to iic.o(i.IIC_SDA_Input_Status) for IIC_SDA_Input_Status
    ems_port.o(i.EMS_Port_Init) refers to sysctrl.o(i.Sysctrl_SetPeripheralGate) for Sysctrl_SetPeripheralGate
    ems_port.o(i.EMS_Port_Init) refers to ddl.o(i.ddl_memclr) for ddl_memclr
    ems_port.o(i.EMS_Port_Init) refers to gpio.o(i.Gpio_Init) for Gpio_Init
    ems_port.o(i.EMS_Port_Init) refers to gpio.o(i.Gpio_ClrIO) for Gpio_ClrIO
    ems_port.o(i.EmsABAuto_And_CDAuto_PN) refers to gpio.o(i.Gpio_SetIO) for Gpio_SetIO
    ems_port.o(i.EmsABAuto_And_CDAuto_PN) refers to ddl.o(i.delay1us) for delay1us
    ems_port.o(i.EmsABAuto_And_CDAuto_PN) refers to gpio.o(i.Gpio_ClrIO) for Gpio_ClrIO
    ems_port.o(i.EmsABC_T_D_PN) refers to gpio.o(i.Gpio_SetIO) for Gpio_SetIO
    ems_port.o(i.EmsABC_T_D_PN) refers to ddl.o(i.delay1us) for delay1us
    ems_port.o(i.EmsABC_T_D_PN) refers to gpio.o(i.Gpio_ClrIO) for Gpio_ClrIO
    ems_port.o(i.EmsABD_T_C_PN) refers to gpio.o(i.Gpio_SetIO) for Gpio_SetIO
    ems_port.o(i.EmsABD_T_C_PN) refers to ddl.o(i.delay1us) for delay1us
    ems_port.o(i.EmsABD_T_C_PN) refers to gpio.o(i.Gpio_ClrIO) for Gpio_ClrIO
    ems_port.o(i.EmsACAutO_And_BDAuto_PN) refers to gpio.o(i.Gpio_SetIO) for Gpio_SetIO
    ems_port.o(i.EmsACAutO_And_BDAuto_PN) refers to ddl.o(i.delay1us) for delay1us
    ems_port.o(i.EmsACAutO_And_BDAuto_PN) refers to gpio.o(i.Gpio_ClrIO) for Gpio_ClrIO
    ems_port.o(i.EmsACD_T_B_PN) refers to gpio.o(i.Gpio_SetIO) for Gpio_SetIO
    ems_port.o(i.EmsACD_T_B_PN) refers to ddl.o(i.delay1us) for delay1us
    ems_port.o(i.EmsACD_T_B_PN) refers to gpio.o(i.Gpio_ClrIO) for Gpio_ClrIO
    ems_port.o(i.EmsADAuto_And_BCAuto_PN) refers to gpio.o(i.Gpio_SetIO) for Gpio_SetIO
    ems_port.o(i.EmsADAuto_And_BCAuto_PN) refers to ddl.o(i.delay1us) for delay1us
    ems_port.o(i.EmsADAuto_And_BCAuto_PN) refers to gpio.o(i.Gpio_ClrIO) for Gpio_ClrIO
    ems_port.o(i.EmsA_T_B_And_CDAuto_PN) refers to gpio.o(i.Gpio_SetIO) for Gpio_SetIO
    ems_port.o(i.EmsA_T_B_And_CDAuto_PN) refers to ddl.o(i.delay1us) for delay1us
    ems_port.o(i.EmsA_T_B_And_CDAuto_PN) refers to gpio.o(i.Gpio_ClrIO) for Gpio_ClrIO
    ems_port.o(i.EmsA_T_B_And_C_T_D) refers to gpio.o(i.Gpio_SetIO) for Gpio_SetIO
    ems_port.o(i.EmsA_T_B_And_C_T_D) refers to ddl.o(i.delay1us) for delay1us
    ems_port.o(i.EmsA_T_B_And_C_T_D) refers to gpio.o(i.Gpio_ClrIO) for Gpio_ClrIO
    ems_port.o(i.EmsA_T_B_And_D_T_C) refers to gpio.o(i.Gpio_SetIO) for Gpio_SetIO
    ems_port.o(i.EmsA_T_B_And_D_T_C) refers to ddl.o(i.delay1us) for delay1us
    ems_port.o(i.EmsA_T_B_And_D_T_C) refers to gpio.o(i.Gpio_ClrIO) for Gpio_ClrIO
    ems_port.o(i.EmsA_T_C_And_BDAuto_PN) refers to gpio.o(i.Gpio_SetIO) for Gpio_SetIO
    ems_port.o(i.EmsA_T_C_And_BDAuto_PN) refers to ddl.o(i.delay1us) for delay1us
    ems_port.o(i.EmsA_T_C_And_BDAuto_PN) refers to gpio.o(i.Gpio_ClrIO) for Gpio_ClrIO
    ems_port.o(i.EmsA_T_C_And_BD_No_PN) refers to gpio.o(i.Gpio_SetIO) for Gpio_SetIO
    ems_port.o(i.EmsA_T_C_And_BD_No_PN) refers to ddl.o(i.delay1us) for delay1us
    ems_port.o(i.EmsA_T_C_And_BD_No_PN) refers to gpio.o(i.Gpio_ClrIO) for Gpio_ClrIO
    ems_port.o(i.EmsA_T_C_And_B_T_D) refers to gpio.o(i.Gpio_SetIO) for Gpio_SetIO
    ems_port.o(i.EmsA_T_C_And_B_T_D) refers to ddl.o(i.delay1us) for delay1us
    ems_port.o(i.EmsA_T_C_And_B_T_D) refers to gpio.o(i.Gpio_ClrIO) for Gpio_ClrIO
    ems_port.o(i.EmsA_T_C_And_D_T_B) refers to gpio.o(i.Gpio_SetIO) for Gpio_SetIO
    ems_port.o(i.EmsA_T_C_And_D_T_B) refers to ddl.o(i.delay1us) for delay1us
    ems_port.o(i.EmsA_T_C_And_D_T_B) refers to gpio.o(i.Gpio_ClrIO) for Gpio_ClrIO
    ems_port.o(i.EmsA_T_D_And_BCAuto_PN) refers to gpio.o(i.Gpio_SetIO) for Gpio_SetIO
    ems_port.o(i.EmsA_T_D_And_BCAuto_PN) refers to ddl.o(i.delay1us) for delay1us
    ems_port.o(i.EmsA_T_D_And_BCAuto_PN) refers to gpio.o(i.Gpio_ClrIO) for Gpio_ClrIO
    ems_port.o(i.EmsA_T_D_And_BC_No_PN) refers to gpio.o(i.Gpio_SetIO) for Gpio_SetIO
    ems_port.o(i.EmsA_T_D_And_BC_No_PN) refers to ddl.o(i.delay1us) for delay1us
    ems_port.o(i.EmsA_T_D_And_BC_No_PN) refers to gpio.o(i.Gpio_ClrIO) for Gpio_ClrIO
    ems_port.o(i.EmsA_T_D_And_B_T_C) refers to gpio.o(i.Gpio_SetIO) for Gpio_SetIO
    ems_port.o(i.EmsA_T_D_And_B_T_C) refers to ddl.o(i.delay1us) for delay1us
    ems_port.o(i.EmsA_T_D_And_B_T_C) refers to gpio.o(i.Gpio_ClrIO) for Gpio_ClrIO
    ems_port.o(i.EmsA_T_D_And_C_T_B) refers to gpio.o(i.Gpio_SetIO) for Gpio_SetIO
    ems_port.o(i.EmsA_T_D_And_C_T_B) refers to ddl.o(i.delay1us) for delay1us
    ems_port.o(i.EmsA_T_D_And_C_T_B) refers to gpio.o(i.Gpio_ClrIO) for Gpio_ClrIO
    ems_port.o(i.EmsBCD_T_A_PN) refers to gpio.o(i.Gpio_SetIO) for Gpio_SetIO
    ems_port.o(i.EmsBCD_T_A_PN) refers to ddl.o(i.delay1us) for delay1us
    ems_port.o(i.EmsBCD_T_A_PN) refers to gpio.o(i.Gpio_ClrIO) for Gpio_ClrIO
    ems_port.o(i.EmsB_T_A_And_CDAuto_PN) refers to gpio.o(i.Gpio_SetIO) for Gpio_SetIO
    ems_port.o(i.EmsB_T_A_And_CDAuto_PN) refers to ddl.o(i.delay1us) for delay1us
    ems_port.o(i.EmsB_T_A_And_CDAuto_PN) refers to gpio.o(i.Gpio_ClrIO) for Gpio_ClrIO
    ems_port.o(i.EmsB_T_A_And_CD_No_PN) refers to gpio.o(i.Gpio_SetIO) for Gpio_SetIO
    ems_port.o(i.EmsB_T_A_And_CD_No_PN) refers to ddl.o(i.delay1us) for delay1us
    ems_port.o(i.EmsB_T_A_And_CD_No_PN) refers to gpio.o(i.Gpio_ClrIO) for Gpio_ClrIO
    ems_port.o(i.EmsB_T_A_And_C_T_D) refers to gpio.o(i.Gpio_SetIO) for Gpio_SetIO
    ems_port.o(i.EmsB_T_A_And_C_T_D) refers to ddl.o(i.delay1us) for delay1us
    ems_port.o(i.EmsB_T_A_And_C_T_D) refers to gpio.o(i.Gpio_ClrIO) for Gpio_ClrIO
    ems_port.o(i.EmsB_T_A_And_D_T_C) refers to gpio.o(i.Gpio_SetIO) for Gpio_SetIO
    ems_port.o(i.EmsB_T_A_And_D_T_C) refers to ddl.o(i.delay1us) for delay1us
    ems_port.o(i.EmsB_T_A_And_D_T_C) refers to gpio.o(i.Gpio_ClrIO) for Gpio_ClrIO
    ems_port.o(i.EmsB_T_C_And_ADAuto_PN) refers to gpio.o(i.Gpio_SetIO) for Gpio_SetIO
    ems_port.o(i.EmsB_T_C_And_ADAuto_PN) refers to ddl.o(i.delay1us) for delay1us
    ems_port.o(i.EmsB_T_C_And_ADAuto_PN) refers to gpio.o(i.Gpio_ClrIO) for Gpio_ClrIO
    ems_port.o(i.EmsB_T_C_And_AD_No_PN) refers to gpio.o(i.Gpio_SetIO) for Gpio_SetIO
    ems_port.o(i.EmsB_T_C_And_AD_No_PN) refers to ddl.o(i.delay1us) for delay1us
    ems_port.o(i.EmsB_T_C_And_AD_No_PN) refers to gpio.o(i.Gpio_ClrIO) for Gpio_ClrIO
    ems_port.o(i.EmsB_T_C_And_A_T_D) refers to gpio.o(i.Gpio_SetIO) for Gpio_SetIO
    ems_port.o(i.EmsB_T_C_And_A_T_D) refers to ddl.o(i.delay1us) for delay1us
    ems_port.o(i.EmsB_T_C_And_A_T_D) refers to gpio.o(i.Gpio_ClrIO) for Gpio_ClrIO
    ems_port.o(i.EmsB_T_C_And_D_T_A) refers to gpio.o(i.Gpio_SetIO) for Gpio_SetIO
    ems_port.o(i.EmsB_T_C_And_D_T_A) refers to ddl.o(i.delay1us) for delay1us
    ems_port.o(i.EmsB_T_C_And_D_T_A) refers to gpio.o(i.Gpio_ClrIO) for Gpio_ClrIO
    ems_port.o(i.EmsB_T_D_And_ACAuto_PN) refers to gpio.o(i.Gpio_SetIO) for Gpio_SetIO
    ems_port.o(i.EmsB_T_D_And_ACAuto_PN) refers to ddl.o(i.delay1us) for delay1us
    ems_port.o(i.EmsB_T_D_And_ACAuto_PN) refers to gpio.o(i.Gpio_ClrIO) for Gpio_ClrIO
    ems_port.o(i.EmsB_T_D_And_AC_No_PN) refers to gpio.o(i.Gpio_SetIO) for Gpio_SetIO
    ems_port.o(i.EmsB_T_D_And_AC_No_PN) refers to ddl.o(i.delay1us) for delay1us
    ems_port.o(i.EmsB_T_D_And_AC_No_PN) refers to gpio.o(i.Gpio_ClrIO) for Gpio_ClrIO
    ems_port.o(i.EmsB_T_D_And_A_T_C) refers to gpio.o(i.Gpio_SetIO) for Gpio_SetIO
    ems_port.o(i.EmsB_T_D_And_A_T_C) refers to ddl.o(i.delay1us) for delay1us
    ems_port.o(i.EmsB_T_D_And_A_T_C) refers to gpio.o(i.Gpio_ClrIO) for Gpio_ClrIO
    ems_port.o(i.EmsB_T_D_And_C_T_A) refers to gpio.o(i.Gpio_SetIO) for Gpio_SetIO
    ems_port.o(i.EmsB_T_D_And_C_T_A) refers to ddl.o(i.delay1us) for delay1us
    ems_port.o(i.EmsB_T_D_And_C_T_A) refers to gpio.o(i.Gpio_ClrIO) for Gpio_ClrIO
    ems_port.o(i.EmsC_T_A_And_BDAuto_PN) refers to gpio.o(i.Gpio_SetIO) for Gpio_SetIO
    ems_port.o(i.EmsC_T_A_And_BDAuto_PN) refers to ddl.o(i.delay1us) for delay1us
    ems_port.o(i.EmsC_T_A_And_BDAuto_PN) refers to gpio.o(i.Gpio_ClrIO) for Gpio_ClrIO
    ems_port.o(i.EmsC_T_A_And_BD_No) refers to gpio.o(i.Gpio_SetIO) for Gpio_SetIO
    ems_port.o(i.EmsC_T_A_And_BD_No) refers to ddl.o(i.delay1us) for delay1us
    ems_port.o(i.EmsC_T_A_And_BD_No) refers to gpio.o(i.Gpio_ClrIO) for Gpio_ClrIO
    ems_port.o(i.EmsC_T_A_And_BD_No_PN) refers to gpio.o(i.Gpio_SetIO) for Gpio_SetIO
    ems_port.o(i.EmsC_T_A_And_BD_No_PN) refers to ddl.o(i.delay1us) for delay1us
    ems_port.o(i.EmsC_T_A_And_BD_No_PN) refers to gpio.o(i.Gpio_ClrIO) for Gpio_ClrIO
    ems_port.o(i.EmsC_T_A_And_B_T_D) refers to gpio.o(i.Gpio_SetIO) for Gpio_SetIO
    ems_port.o(i.EmsC_T_A_And_B_T_D) refers to ddl.o(i.delay1us) for delay1us
    ems_port.o(i.EmsC_T_A_And_B_T_D) refers to gpio.o(i.Gpio_ClrIO) for Gpio_ClrIO
    ems_port.o(i.EmsC_T_A_And_D_T_B) refers to gpio.o(i.Gpio_SetIO) for Gpio_SetIO
    ems_port.o(i.EmsC_T_A_And_D_T_B) refers to ddl.o(i.delay1us) for delay1us
    ems_port.o(i.EmsC_T_A_And_D_T_B) refers to gpio.o(i.Gpio_ClrIO) for Gpio_ClrIO
    ems_port.o(i.EmsC_T_B_And_ADAuto_PN) refers to gpio.o(i.Gpio_SetIO) for Gpio_SetIO
    ems_port.o(i.EmsC_T_B_And_ADAuto_PN) refers to ddl.o(i.delay1us) for delay1us
    ems_port.o(i.EmsC_T_B_And_ADAuto_PN) refers to gpio.o(i.Gpio_ClrIO) for Gpio_ClrIO
    ems_port.o(i.EmsC_T_B_And_AD_No) refers to gpio.o(i.Gpio_SetIO) for Gpio_SetIO
    ems_port.o(i.EmsC_T_B_And_AD_No) refers to ddl.o(i.delay1us) for delay1us
    ems_port.o(i.EmsC_T_B_And_AD_No) refers to gpio.o(i.Gpio_ClrIO) for Gpio_ClrIO
    ems_port.o(i.EmsC_T_B_And_AD_No_PN) refers to gpio.o(i.Gpio_SetIO) for Gpio_SetIO
    ems_port.o(i.EmsC_T_B_And_AD_No_PN) refers to ddl.o(i.delay1us) for delay1us
    ems_port.o(i.EmsC_T_B_And_AD_No_PN) refers to gpio.o(i.Gpio_ClrIO) for Gpio_ClrIO
    ems_port.o(i.EmsC_T_B_And_A_T_D) refers to gpio.o(i.Gpio_SetIO) for Gpio_SetIO
    ems_port.o(i.EmsC_T_B_And_A_T_D) refers to ddl.o(i.delay1us) for delay1us
    ems_port.o(i.EmsC_T_B_And_A_T_D) refers to gpio.o(i.Gpio_ClrIO) for Gpio_ClrIO
    ems_port.o(i.EmsC_T_B_And_D_T_A) refers to gpio.o(i.Gpio_SetIO) for Gpio_SetIO
    ems_port.o(i.EmsC_T_B_And_D_T_A) refers to ddl.o(i.delay1us) for delay1us
    ems_port.o(i.EmsC_T_B_And_D_T_A) refers to gpio.o(i.Gpio_ClrIO) for Gpio_ClrIO
    ems_port.o(i.EmsC_T_D_And_ABAuto_PN) refers to gpio.o(i.Gpio_SetIO) for Gpio_SetIO
    ems_port.o(i.EmsC_T_D_And_ABAuto_PN) refers to ddl.o(i.delay1us) for delay1us
    ems_port.o(i.EmsC_T_D_And_ABAuto_PN) refers to gpio.o(i.Gpio_ClrIO) for Gpio_ClrIO
    ems_port.o(i.EmsC_T_D_And_AB_No) refers to gpio.o(i.Gpio_SetIO) for Gpio_SetIO
    ems_port.o(i.EmsC_T_D_And_AB_No) refers to ddl.o(i.delay1us) for delay1us
    ems_port.o(i.EmsC_T_D_And_AB_No) refers to gpio.o(i.Gpio_ClrIO) for Gpio_ClrIO
    ems_port.o(i.EmsC_T_D_And_AB_No_PN) refers to gpio.o(i.Gpio_SetIO) for Gpio_SetIO
    ems_port.o(i.EmsC_T_D_And_AB_No_PN) refers to ddl.o(i.delay1us) for delay1us
    ems_port.o(i.EmsC_T_D_And_AB_No_PN) refers to gpio.o(i.Gpio_ClrIO) for Gpio_ClrIO
    ems_port.o(i.EmsC_T_D_And_A_T_B) refers to gpio.o(i.Gpio_SetIO) for Gpio_SetIO
    ems_port.o(i.EmsC_T_D_And_A_T_B) refers to ddl.o(i.delay1us) for delay1us
    ems_port.o(i.EmsC_T_D_And_A_T_B) refers to gpio.o(i.Gpio_ClrIO) for Gpio_ClrIO
    ems_port.o(i.EmsC_T_D_And_B_T_A) refers to gpio.o(i.Gpio_SetIO) for Gpio_SetIO
    ems_port.o(i.EmsC_T_D_And_B_T_A) refers to ddl.o(i.delay1us) for delay1us
    ems_port.o(i.EmsC_T_D_And_B_T_A) refers to gpio.o(i.Gpio_ClrIO) for Gpio_ClrIO
    ems_port.o(i.EmsD_T_A_And_BC_AutO_PN) refers to gpio.o(i.Gpio_SetIO) for Gpio_SetIO
    ems_port.o(i.EmsD_T_A_And_BC_AutO_PN) refers to ddl.o(i.delay1us) for delay1us
    ems_port.o(i.EmsD_T_A_And_BC_AutO_PN) refers to gpio.o(i.Gpio_ClrIO) for Gpio_ClrIO
    ems_port.o(i.EmsD_T_A_And_BC_No_PN) refers to gpio.o(i.Gpio_SetIO) for Gpio_SetIO
    ems_port.o(i.EmsD_T_A_And_BC_No_PN) refers to ddl.o(i.delay1us) for delay1us
    ems_port.o(i.EmsD_T_A_And_BC_No_PN) refers to gpio.o(i.Gpio_ClrIO) for Gpio_ClrIO
    ems_port.o(i.EmsD_T_A_And_B_T_C) refers to gpio.o(i.Gpio_SetIO) for Gpio_SetIO
    ems_port.o(i.EmsD_T_A_And_B_T_C) refers to ddl.o(i.delay1us) for delay1us
    ems_port.o(i.EmsD_T_A_And_B_T_C) refers to gpio.o(i.Gpio_ClrIO) for Gpio_ClrIO
    ems_port.o(i.EmsD_T_A_And_C_T_B) refers to gpio.o(i.Gpio_SetIO) for Gpio_SetIO
    ems_port.o(i.EmsD_T_A_And_C_T_B) refers to ddl.o(i.delay1us) for delay1us
    ems_port.o(i.EmsD_T_A_And_C_T_B) refers to gpio.o(i.Gpio_ClrIO) for Gpio_ClrIO
    ems_port.o(i.EmsD_T_B_And_AC_No_PN) refers to gpio.o(i.Gpio_SetIO) for Gpio_SetIO
    ems_port.o(i.EmsD_T_B_And_AC_No_PN) refers to ddl.o(i.delay1us) for delay1us
    ems_port.o(i.EmsD_T_B_And_AC_No_PN) refers to gpio.o(i.Gpio_ClrIO) for Gpio_ClrIO
    ems_port.o(i.EmsD_T_C_And_AB_No_PN) refers to gpio.o(i.Gpio_SetIO) for Gpio_SetIO
    ems_port.o(i.EmsD_T_C_And_AB_No_PN) refers to ddl.o(i.delay1us) for delay1us
    ems_port.o(i.EmsD_T_C_And_AB_No_PN) refers to gpio.o(i.Gpio_ClrIO) for Gpio_ClrIO
    ems_port.o(i.Ems_AB_And_CD_Discharge) refers to gpio.o(i.Gpio_SetIO) for Gpio_SetIO
    ems_port.o(i.Ems_AB_And_CD_Discharge) refers to ddl.o(i.delay1us) for delay1us
    ems_port.o(i.Ems_AB_And_CD_Discharge) refers to gpio.o(i.Gpio_ClrIO) for Gpio_ClrIO
    ems_port.o(i.Ems_AB_And_CD_Four) refers to gpio.o(i.Gpio_SetIO) for Gpio_SetIO
    ems_port.o(i.Ems_AB_And_CD_Four) refers to ddl.o(i.delay1us) for delay1us
    ems_port.o(i.Ems_AB_And_CD_Four) refers to gpio.o(i.Gpio_ClrIO) for Gpio_ClrIO
    ems_port.o(i.Ems_AB_And_CD_Idle) refers to gpio.o(i.Gpio_ClrIO) for Gpio_ClrIO
    ems_port.o(i.Ems_AToB_And_Ems_CToD_PNAlter_N) refers to gpio.o(i.Gpio_SetIO) for Gpio_SetIO
    ems_port.o(i.Ems_AToB_And_Ems_CToD_PNAlter_N) refers to ddl.o(i.delay1us) for delay1us
    ems_port.o(i.Ems_AToB_And_Ems_CToD_PNAlter_N) refers to gpio.o(i.Gpio_ClrIO) for Gpio_ClrIO
    ems_port.o(i.Ems_AToB_And_Ems_CToD_PNAlter_P) refers to gpio.o(i.Gpio_SetIO) for Gpio_SetIO
    ems_port.o(i.Ems_AToB_And_Ems_CToD_PNAlter_P) refers to ddl.o(i.delay1us) for delay1us
    ems_port.o(i.Ems_AToB_And_Ems_CToD_PNAlter_P) refers to gpio.o(i.Gpio_ClrIO) for Gpio_ClrIO
    ems_port.o(i.Ems_AToB_Ems_CToD_FS_N) refers to gpio.o(i.Gpio_SetIO) for Gpio_SetIO
    ems_port.o(i.Ems_AToB_Ems_CToD_FS_N) refers to ddl.o(i.delay1us) for delay1us
    ems_port.o(i.Ems_AToB_Ems_CToD_FS_N) refers to gpio.o(i.Gpio_ClrIO) for Gpio_ClrIO
    ems_port.o(i.Ems_AToB_Ems_CToD_FS_P) refers to gpio.o(i.Gpio_SetIO) for Gpio_SetIO
    ems_port.o(i.Ems_AToB_Ems_CToD_FS_P) refers to ddl.o(i.delay1us) for delay1us
    ems_port.o(i.Ems_AToB_Ems_CToD_FS_P) refers to gpio.o(i.Gpio_ClrIO) for Gpio_ClrIO
    ems_port.o(i.Ems_AToC_And_Ems_BToD_PNAlter_N) refers to gpio.o(i.Gpio_SetIO) for Gpio_SetIO
    ems_port.o(i.Ems_AToC_And_Ems_BToD_PNAlter_N) refers to ddl.o(i.delay1us) for delay1us
    ems_port.o(i.Ems_AToC_And_Ems_BToD_PNAlter_N) refers to gpio.o(i.Gpio_ClrIO) for Gpio_ClrIO
    ems_port.o(i.Ems_AToC_And_Ems_BToD_PNAlter_P) refers to gpio.o(i.Gpio_SetIO) for Gpio_SetIO
    ems_port.o(i.Ems_AToC_And_Ems_BToD_PNAlter_P) refers to ddl.o(i.delay1us) for delay1us
    ems_port.o(i.Ems_AToC_And_Ems_BToD_PNAlter_P) refers to gpio.o(i.Gpio_ClrIO) for Gpio_ClrIO
    ems_port.o(i.Ems_AToD_And_Ems_BToC_PNAlter_N) refers to gpio.o(i.Gpio_SetIO) for Gpio_SetIO
    ems_port.o(i.Ems_AToD_And_Ems_BToC_PNAlter_N) refers to ddl.o(i.delay1us) for delay1us
    ems_port.o(i.Ems_AToD_And_Ems_BToC_PNAlter_N) refers to gpio.o(i.Gpio_ClrIO) for Gpio_ClrIO
    ems_port.o(i.Ems_AToD_And_Ems_BToC_PNAlter_P) refers to gpio.o(i.Gpio_SetIO) for Gpio_SetIO
    ems_port.o(i.Ems_AToD_And_Ems_BToC_PNAlter_P) refers to ddl.o(i.delay1us) for delay1us
    ems_port.o(i.Ems_AToD_And_Ems_BToC_PNAlter_P) refers to gpio.o(i.Gpio_ClrIO) for Gpio_ClrIO
    ems_port.o(i.Ems_A_T_B_And_CD_No_PN) refers to gpio.o(i.Gpio_SetIO) for Gpio_SetIO
    ems_port.o(i.Ems_A_T_B_And_CD_No_PN) refers to ddl.o(i.delay1us) for delay1us
    ems_port.o(i.Ems_A_T_B_And_CD_No_PN) refers to gpio.o(i.Gpio_ClrIO) for Gpio_ClrIO
    ems_port.o(i.Ems_A_To_Ems_B_Double) refers to gpio.o(i.Gpio_SetIO) for Gpio_SetIO
    ems_port.o(i.Ems_A_To_Ems_B_Double) refers to ddl.o(i.delay1us) for delay1us
    ems_port.o(i.Ems_A_To_Ems_B_Double) refers to gpio.o(i.Gpio_ClrIO) for Gpio_ClrIO
    ems_port.o(i.Ems_A_To_Ems_B_FS_N) refers to gpio.o(i.Gpio_SetIO) for Gpio_SetIO
    ems_port.o(i.Ems_A_To_Ems_B_FS_N) refers to ddl.o(i.delay1us) for delay1us
    ems_port.o(i.Ems_A_To_Ems_B_FS_N) refers to gpio.o(i.Gpio_ClrIO) for Gpio_ClrIO
    ems_port.o(i.Ems_A_To_Ems_B_FS_P) refers to gpio.o(i.Gpio_SetIO) for Gpio_SetIO
    ems_port.o(i.Ems_A_To_Ems_B_FS_P) refers to ddl.o(i.delay1us) for delay1us
    ems_port.o(i.Ems_A_To_Ems_B_FS_P) refers to gpio.o(i.Gpio_ClrIO) for Gpio_ClrIO
    ems_port.o(i.Ems_A_To_Ems_B_PNAlter_Four_N) refers to gpio.o(i.Gpio_SetIO) for Gpio_SetIO
    ems_port.o(i.Ems_A_To_Ems_B_PNAlter_Four_N) refers to ddl.o(i.delay1us) for delay1us
    ems_port.o(i.Ems_A_To_Ems_B_PNAlter_Four_N) refers to gpio.o(i.Gpio_ClrIO) for Gpio_ClrIO
    ems_port.o(i.Ems_A_To_Ems_B_PNAlter_Four_P) refers to gpio.o(i.Gpio_SetIO) for Gpio_SetIO
    ems_port.o(i.Ems_A_To_Ems_B_PNAlter_Four_P) refers to ddl.o(i.delay1us) for delay1us
    ems_port.o(i.Ems_A_To_Ems_B_PNAlter_Four_P) refers to gpio.o(i.Gpio_ClrIO) for Gpio_ClrIO
    ems_port.o(i.Ems_A_To_Ems_B_PNAlter_N) refers to gpio.o(i.Gpio_SetIO) for Gpio_SetIO
    ems_port.o(i.Ems_A_To_Ems_B_PNAlter_N) refers to ddl.o(i.delay1us) for delay1us
    ems_port.o(i.Ems_A_To_Ems_B_PNAlter_N) refers to gpio.o(i.Gpio_ClrIO) for Gpio_ClrIO
    ems_port.o(i.Ems_A_To_Ems_B_PNAlter_P) refers to gpio.o(i.Gpio_SetIO) for Gpio_SetIO
    ems_port.o(i.Ems_A_To_Ems_B_PNAlter_P) refers to ddl.o(i.delay1us) for delay1us
    ems_port.o(i.Ems_A_To_Ems_B_PNAlter_P) refers to gpio.o(i.Gpio_ClrIO) for Gpio_ClrIO
    ems_port.o(i.Ems_A_To_Ems_B_Single_N) refers to gpio.o(i.Gpio_SetIO) for Gpio_SetIO
    ems_port.o(i.Ems_A_To_Ems_B_Single_N) refers to ddl.o(i.delay1us) for delay1us
    ems_port.o(i.Ems_A_To_Ems_B_Single_N) refers to gpio.o(i.Gpio_ClrIO) for Gpio_ClrIO
    ems_port.o(i.Ems_A_To_Ems_B_Single_P) refers to gpio.o(i.Gpio_SetIO) for Gpio_SetIO
    ems_port.o(i.Ems_A_To_Ems_B_Single_P) refers to ddl.o(i.delay1us) for delay1us
    ems_port.o(i.Ems_A_To_Ems_B_Single_P) refers to gpio.o(i.Gpio_ClrIO) for Gpio_ClrIO
    ems_port.o(i.Ems_A_To_Ems_C_FS_N) refers to gpio.o(i.Gpio_SetIO) for Gpio_SetIO
    ems_port.o(i.Ems_A_To_Ems_C_FS_N) refers to ddl.o(i.delay1us) for delay1us
    ems_port.o(i.Ems_A_To_Ems_C_FS_N) refers to gpio.o(i.Gpio_ClrIO) for Gpio_ClrIO
    ems_port.o(i.Ems_A_To_Ems_C_FS_P) refers to gpio.o(i.Gpio_SetIO) for Gpio_SetIO
    ems_port.o(i.Ems_A_To_Ems_C_FS_P) refers to ddl.o(i.delay1us) for delay1us
    ems_port.o(i.Ems_A_To_Ems_C_FS_P) refers to gpio.o(i.Gpio_ClrIO) for Gpio_ClrIO
    ems_port.o(i.Ems_A_To_Ems_C_PNAlter_Four_N) refers to gpio.o(i.Gpio_SetIO) for Gpio_SetIO
    ems_port.o(i.Ems_A_To_Ems_C_PNAlter_Four_N) refers to ddl.o(i.delay1us) for delay1us
    ems_port.o(i.Ems_A_To_Ems_C_PNAlter_Four_N) refers to gpio.o(i.Gpio_ClrIO) for Gpio_ClrIO
    ems_port.o(i.Ems_A_To_Ems_C_PNAlter_Four_P) refers to gpio.o(i.Gpio_SetIO) for Gpio_SetIO
    ems_port.o(i.Ems_A_To_Ems_C_PNAlter_Four_P) refers to ddl.o(i.delay1us) for delay1us
    ems_port.o(i.Ems_A_To_Ems_C_PNAlter_Four_P) refers to gpio.o(i.Gpio_ClrIO) for Gpio_ClrIO
    ems_port.o(i.Ems_A_To_Ems_D_FS_N) refers to gpio.o(i.Gpio_SetIO) for Gpio_SetIO
    ems_port.o(i.Ems_A_To_Ems_D_FS_N) refers to ddl.o(i.delay1us) for delay1us
    ems_port.o(i.Ems_A_To_Ems_D_FS_N) refers to gpio.o(i.Gpio_ClrIO) for Gpio_ClrIO
    ems_port.o(i.Ems_A_To_Ems_D_FS_P) refers to gpio.o(i.Gpio_SetIO) for Gpio_SetIO
    ems_port.o(i.Ems_A_To_Ems_D_FS_P) refers to ddl.o(i.delay1us) for delay1us
    ems_port.o(i.Ems_A_To_Ems_D_FS_P) refers to gpio.o(i.Gpio_ClrIO) for Gpio_ClrIO
    ems_port.o(i.Ems_B_To_Ems_C_FS_N) refers to gpio.o(i.Gpio_SetIO) for Gpio_SetIO
    ems_port.o(i.Ems_B_To_Ems_C_FS_N) refers to ddl.o(i.delay1us) for delay1us
    ems_port.o(i.Ems_B_To_Ems_C_FS_N) refers to gpio.o(i.Gpio_ClrIO) for Gpio_ClrIO
    ems_port.o(i.Ems_B_To_Ems_C_FS_P) refers to gpio.o(i.Gpio_SetIO) for Gpio_SetIO
    ems_port.o(i.Ems_B_To_Ems_C_FS_P) refers to ddl.o(i.delay1us) for delay1us
    ems_port.o(i.Ems_B_To_Ems_C_FS_P) refers to gpio.o(i.Gpio_ClrIO) for Gpio_ClrIO
    ems_port.o(i.Ems_B_To_Ems_C_PNAlter_Four_N) refers to gpio.o(i.Gpio_SetIO) for Gpio_SetIO
    ems_port.o(i.Ems_B_To_Ems_C_PNAlter_Four_N) refers to ddl.o(i.delay1us) for delay1us
    ems_port.o(i.Ems_B_To_Ems_C_PNAlter_Four_N) refers to gpio.o(i.Gpio_ClrIO) for Gpio_ClrIO
    ems_port.o(i.Ems_B_To_Ems_C_PNAlter_Four_P) refers to gpio.o(i.Gpio_SetIO) for Gpio_SetIO
    ems_port.o(i.Ems_B_To_Ems_C_PNAlter_Four_P) refers to ddl.o(i.delay1us) for delay1us
    ems_port.o(i.Ems_B_To_Ems_C_PNAlter_Four_P) refers to gpio.o(i.Gpio_ClrIO) for Gpio_ClrIO
    ems_port.o(i.Ems_B_To_Ems_D_FS_N) refers to gpio.o(i.Gpio_SetIO) for Gpio_SetIO
    ems_port.o(i.Ems_B_To_Ems_D_FS_N) refers to ddl.o(i.delay1us) for delay1us
    ems_port.o(i.Ems_B_To_Ems_D_FS_N) refers to gpio.o(i.Gpio_ClrIO) for Gpio_ClrIO
    ems_port.o(i.Ems_B_To_Ems_D_FS_P) refers to gpio.o(i.Gpio_SetIO) for Gpio_SetIO
    ems_port.o(i.Ems_B_To_Ems_D_FS_P) refers to ddl.o(i.delay1us) for delay1us
    ems_port.o(i.Ems_B_To_Ems_D_FS_P) refers to gpio.o(i.Gpio_ClrIO) for Gpio_ClrIO
    ems_port.o(i.Ems_B_To_Ems_D_PNAlter_Four_N) refers to gpio.o(i.Gpio_SetIO) for Gpio_SetIO
    ems_port.o(i.Ems_B_To_Ems_D_PNAlter_Four_N) refers to ddl.o(i.delay1us) for delay1us
    ems_port.o(i.Ems_B_To_Ems_D_PNAlter_Four_N) refers to gpio.o(i.Gpio_ClrIO) for Gpio_ClrIO
    ems_port.o(i.Ems_B_To_Ems_D_PNAlter_Four_P) refers to gpio.o(i.Gpio_SetIO) for Gpio_SetIO
    ems_port.o(i.Ems_B_To_Ems_D_PNAlter_Four_P) refers to ddl.o(i.delay1us) for delay1us
    ems_port.o(i.Ems_B_To_Ems_D_PNAlter_Four_P) refers to gpio.o(i.Gpio_ClrIO) for Gpio_ClrIO
    ems_port.o(i.Ems_C_To_Ems_D_Double) refers to gpio.o(i.Gpio_SetIO) for Gpio_SetIO
    ems_port.o(i.Ems_C_To_Ems_D_Double) refers to ddl.o(i.delay1us) for delay1us
    ems_port.o(i.Ems_C_To_Ems_D_Double) refers to gpio.o(i.Gpio_ClrIO) for Gpio_ClrIO
    ems_port.o(i.Ems_C_To_Ems_D_FS_N) refers to gpio.o(i.Gpio_SetIO) for Gpio_SetIO
    ems_port.o(i.Ems_C_To_Ems_D_FS_N) refers to ddl.o(i.delay1us) for delay1us
    ems_port.o(i.Ems_C_To_Ems_D_FS_N) refers to gpio.o(i.Gpio_ClrIO) for Gpio_ClrIO
    ems_port.o(i.Ems_C_To_Ems_D_FS_P) refers to gpio.o(i.Gpio_SetIO) for Gpio_SetIO
    ems_port.o(i.Ems_C_To_Ems_D_FS_P) refers to ddl.o(i.delay1us) for delay1us
    ems_port.o(i.Ems_C_To_Ems_D_FS_P) refers to gpio.o(i.Gpio_ClrIO) for Gpio_ClrIO
    ems_port.o(i.Ems_C_To_Ems_D_PNAlter_Four_N) refers to gpio.o(i.Gpio_SetIO) for Gpio_SetIO
    ems_port.o(i.Ems_C_To_Ems_D_PNAlter_Four_N) refers to ddl.o(i.delay1us) for delay1us
    ems_port.o(i.Ems_C_To_Ems_D_PNAlter_Four_N) refers to gpio.o(i.Gpio_ClrIO) for Gpio_ClrIO
    ems_port.o(i.Ems_C_To_Ems_D_PNAlter_Four_P) refers to gpio.o(i.Gpio_SetIO) for Gpio_SetIO
    ems_port.o(i.Ems_C_To_Ems_D_PNAlter_Four_P) refers to ddl.o(i.delay1us) for delay1us
    ems_port.o(i.Ems_C_To_Ems_D_PNAlter_Four_P) refers to gpio.o(i.Gpio_ClrIO) for Gpio_ClrIO
    ems_port.o(i.Ems_C_To_Ems_D_PNAlter_N) refers to gpio.o(i.Gpio_SetIO) for Gpio_SetIO
    ems_port.o(i.Ems_C_To_Ems_D_PNAlter_N) refers to ddl.o(i.delay1us) for delay1us
    ems_port.o(i.Ems_C_To_Ems_D_PNAlter_N) refers to gpio.o(i.Gpio_ClrIO) for Gpio_ClrIO
    ems_port.o(i.Ems_C_To_Ems_D_PNAlter_P) refers to gpio.o(i.Gpio_SetIO) for Gpio_SetIO
    ems_port.o(i.Ems_C_To_Ems_D_PNAlter_P) refers to ddl.o(i.delay1us) for delay1us
    ems_port.o(i.Ems_C_To_Ems_D_PNAlter_P) refers to gpio.o(i.Gpio_ClrIO) for Gpio_ClrIO
    ems_port.o(i.Ems_C_To_Ems_D_Single_N) refers to gpio.o(i.Gpio_SetIO) for Gpio_SetIO
    ems_port.o(i.Ems_C_To_Ems_D_Single_N) refers to ddl.o(i.delay1us) for delay1us
    ems_port.o(i.Ems_C_To_Ems_D_Single_N) refers to gpio.o(i.Gpio_ClrIO) for Gpio_ClrIO
    ems_port.o(i.Ems_C_To_Ems_D_Single_P) refers to gpio.o(i.Gpio_SetIO) for Gpio_SetIO
    ems_port.o(i.Ems_C_To_Ems_D_Single_P) refers to ddl.o(i.delay1us) for delay1us
    ems_port.o(i.Ems_C_To_Ems_D_Single_P) refers to gpio.o(i.Gpio_ClrIO) for Gpio_ClrIO
    ems_port.o(i.Ems_D_To_Ems_A_PNAlter_Four_N) refers to gpio.o(i.Gpio_SetIO) for Gpio_SetIO
    ems_port.o(i.Ems_D_To_Ems_A_PNAlter_Four_N) refers to ddl.o(i.delay1us) for delay1us
    ems_port.o(i.Ems_D_To_Ems_A_PNAlter_Four_N) refers to gpio.o(i.Gpio_ClrIO) for Gpio_ClrIO
    ems_port.o(i.Ems_D_To_Ems_A_PNAlter_Four_P) refers to gpio.o(i.Gpio_SetIO) for Gpio_SetIO
    ems_port.o(i.Ems_D_To_Ems_A_PNAlter_Four_P) refers to ddl.o(i.delay1us) for delay1us
    ems_port.o(i.Ems_D_To_Ems_A_PNAlter_Four_P) refers to gpio.o(i.Gpio_ClrIO) for Gpio_ClrIO
    hc595.o(i.HC595_Init) refers to sysctrl.o(i.Sysctrl_SetPeripheralGate) for Sysctrl_SetPeripheralGate
    hc595.o(i.HC595_Init) refers to ddl.o(i.ddl_memclr) for ddl_memclr
    hc595.o(i.HC595_Init) refers to gpio.o(i.Gpio_Init) for Gpio_Init
    hc595.o(i.HC595_Init) refers to hc595.o(i.Led_Blue_SetIO) for Led_Blue_SetIO
    hc595.o(i.HC595_Init) refers to hc595.o(i.Led_Green_ClrIO) for Led_Green_ClrIO
    hc595.o(i.HC595_Init) refers to hc595.o(i.Led_Red_SetIO) for Led_Red_SetIO
    hc595.o(i.HC595_Init) refers to hc595.o(i.Heater_To_Port_SetIO) for Heater_To_Port_SetIO
    hc595.o(i.HC595_SendByte) refers to gpio.o(i.Gpio_SetIO) for Gpio_SetIO
    hc595.o(i.HC595_SendByte) refers to gpio.o(i.Gpio_ClrIO) for Gpio_ClrIO
    hc595.o(i.HC595_SendByte) refers to hc595.o(i.delay_us_ms) for delay_us_ms
    hc595.o(i.Heater_To_Port_ClrIO) refers to hc595.o(i.HC595_SendByte) for HC595_SendByte
    hc595.o(i.Heater_To_Port_ClrIO) refers to hc595.o(.data) for HC595SaveStatus_Bit
    hc595.o(i.Heater_To_Port_SetIO) refers to hc595.o(i.HC595_SendByte) for HC595_SendByte
    hc595.o(i.Heater_To_Port_SetIO) refers to hc595.o(.data) for HC595SaveStatus_Bit
    hc595.o(i.Led_All_Close) refers to hc595.o(i.HC595_SendByte) for HC595_SendByte
    hc595.o(i.Led_All_Close) refers to hc595.o(.data) for HC595SaveStatus_Bit
    hc595.o(i.Led_Blue_Close) refers to hc595.o(i.Led_Blue_ClrIO) for Led_Blue_ClrIO
    hc595.o(i.Led_Blue_ClrIO) refers to hc595.o(i.HC595_SendByte) for HC595_SendByte
    hc595.o(i.Led_Blue_ClrIO) refers to hc595.o(.data) for HC595SaveStatus_Bit
    hc595.o(i.Led_Blue_SetIO) refers to hc595.o(i.HC595_SendByte) for HC595_SendByte
    hc595.o(i.Led_Blue_SetIO) refers to hc595.o(.data) for HC595SaveStatus_Bit
    hc595.o(i.Led_Bright_Blue_Close_Red_Green) refers to hc595.o(i.HC595_SendByte) for HC595_SendByte
    hc595.o(i.Led_Bright_Blue_Close_Red_Green) refers to hc595.o(.data) for HC595SaveStatus_Bit
    hc595.o(i.Led_Bright_Green_Close_Blue_Red) refers to hc595.o(i.HC595_SendByte) for HC595_SendByte
    hc595.o(i.Led_Bright_Green_Close_Blue_Red) refers to hc595.o(.data) for HC595SaveStatus_Bit
    hc595.o(i.Led_Bright_Red_Close_Blue_Green) refers to hc595.o(i.HC595_SendByte) for HC595_SendByte
    hc595.o(i.Led_Bright_Red_Close_Blue_Green) refers to hc595.o(.data) for HC595SaveStatus_Bit
    hc595.o(i.Led_Green_Close) refers to hc595.o(i.Led_Green_ClrIO) for Led_Green_ClrIO
    hc595.o(i.Led_Green_ClrIO) refers to hc595.o(i.HC595_SendByte) for HC595_SendByte
    hc595.o(i.Led_Green_ClrIO) refers to hc595.o(.data) for HC595SaveStatus_Bit
    hc595.o(i.Led_Green_SetIO) refers to hc595.o(i.HC595_SendByte) for HC595_SendByte
    hc595.o(i.Led_Green_SetIO) refers to hc595.o(.data) for HC595SaveStatus_Bit
    hc595.o(i.Led_Red_Close) refers to hc595.o(i.Led_Red_ClrIO) for Led_Red_ClrIO
    hc595.o(i.Led_Red_ClrIO) refers to hc595.o(i.HC595_SendByte) for HC595_SendByte
    hc595.o(i.Led_Red_ClrIO) refers to hc595.o(.data) for HC595SaveStatus_Bit
    hc595.o(i.Led_Red_SetIO) refers to hc595.o(i.HC595_SendByte) for HC595_SendByte
    hc595.o(i.Led_Red_SetIO) refers to hc595.o(.data) for HC595SaveStatus_Bit
    hc595.o(i.Motor_Vibration_ClrIO) refers to hc595.o(i.HC595_SendByte) for HC595_SendByte
    hc595.o(i.Motor_Vibration_ClrIO) refers to hc595.o(.data) for HC595SaveStatus_Bit
    hc595.o(i.Motor_Vibration_SetIO) refers to hc595.o(i.HC595_SendByte) for HC595_SendByte
    hc595.o(i.Motor_Vibration_SetIO) refers to hc595.o(.data) for HC595SaveStatus_Bit
    ntctempsample.o(i.NTCSampleDataHandler) refers to cfrcmple.o(.text) for __aeabi_cfrcmple
    ntctempsample.o(i.NTCSampleDataHandler) refers to fadd.o(.text) for __aeabi_fsub
    ntctempsample.o(i.NTCSampleDataHandler) refers to fdiv.o(.text) for __aeabi_fdiv
    ntctempsample.o(i.NTCSampleDataHandler) refers to ntctempsample.o(.bss) for NTCDataSmaple
    ntctempsample.o(i.NTCSampleDataHandler) refers to ntctempsample.o(.data) for NTCTempVoltage
    ledmotor.o(i.Heater_Init) refers to sysctrl.o(i.Sysctrl_SetPeripheralGate) for Sysctrl_SetPeripheralGate
    ledmotor.o(i.Heater_Init) refers to ddl.o(i.ddl_memclr) for ddl_memclr
    ledmotor.o(i.Heater_Init) refers to gpio.o(i.Gpio_Init) for Gpio_Init
    ledmotor.o(i.Heater_Init) refers to gpio.o(i.Gpio_SetIO) for Gpio_SetIO
    ledmotor.o(i.Led_1_Init) refers to sysctrl.o(i.Sysctrl_SetPeripheralGate) for Sysctrl_SetPeripheralGate
    ledmotor.o(i.Led_1_Init) refers to ddl.o(i.ddl_memclr) for ddl_memclr
    ledmotor.o(i.Led_1_Init) refers to gpio.o(i.Gpio_Init) for Gpio_Init
    ledmotor.o(i.Led_1_Init) refers to gpio.o(i.Gpio_ClrIO) for Gpio_ClrIO
    ledmotor.o(i.Motor_Init) refers to sysctrl.o(i.Sysctrl_SetPeripheralGate) for Sysctrl_SetPeripheralGate
    ledmotor.o(i.Motor_Init) refers to ddl.o(i.ddl_memclr) for ddl_memclr
    ledmotor.o(i.Motor_Init) refers to gpio.o(i.Gpio_Init) for Gpio_Init
    ledmotor.o(i.Motor_Init) refers to gpio.o(i.Gpio_ClrIO) for Gpio_ClrIO
    system_hc32l136.o(i.SystemCoreClockUpdate) refers to sysctrl.o(i.Sysctrl_GetHClkFreq) for Sysctrl_GetHClkFreq
    system_hc32l136.o(i.SystemCoreClockUpdate) refers to system_hc32l136.o(.data) for SystemCoreClock
    system_hc32l136.o(i.SystemInit) refers to system_hc32l136.o(i.SystemCoreClockUpdate) for SystemCoreClockUpdate
    startup_hc32l136.o(RESET) refers to startup_hc32l136.o(STACK) for __initial_sp
    startup_hc32l136.o(RESET) refers to startup_hc32l136.o(.text) for Reset_Handler
    startup_hc32l136.o(RESET) refers to interrupts_hc32l136.o(i.HardFault_Handler) for HardFault_Handler
    startup_hc32l136.o(RESET) refers to interrupts_hc32l136.o(i.IRQ000_Handler) for IRQ000_Handler
    startup_hc32l136.o(RESET) refers to interrupts_hc32l136.o(i.IRQ001_Handler) for IRQ001_Handler
    startup_hc32l136.o(RESET) refers to interrupts_hc32l136.o(i.IRQ002_Handler) for IRQ002_Handler
    startup_hc32l136.o(RESET) refers to interrupts_hc32l136.o(i.IRQ003_Handler) for IRQ003_Handler
    startup_hc32l136.o(RESET) refers to interrupts_hc32l136.o(i.IRQ004_Handler) for IRQ004_Handler
    startup_hc32l136.o(RESET) refers to interrupts_hc32l136.o(i.IRQ005_Handler) for IRQ005_Handler
    startup_hc32l136.o(RESET) refers to interrupts_hc32l136.o(i.IRQ006_Handler) for IRQ006_Handler
    startup_hc32l136.o(RESET) refers to interrupts_hc32l136.o(i.IRQ007_Handler) for IRQ007_Handler
    startup_hc32l136.o(RESET) refers to interrupts_hc32l136.o(i.IRQ008_Handler) for IRQ008_Handler
    startup_hc32l136.o(RESET) refers to interrupts_hc32l136.o(i.IRQ009_Handler) for IRQ009_Handler
    startup_hc32l136.o(RESET) refers to interrupts_hc32l136.o(i.IRQ010_Handler) for IRQ010_Handler
    startup_hc32l136.o(RESET) refers to interrupts_hc32l136.o(i.IRQ011_Handler) for IRQ011_Handler
    startup_hc32l136.o(RESET) refers to interrupts_hc32l136.o(i.IRQ012_Handler) for IRQ012_Handler
    startup_hc32l136.o(RESET) refers to interrupts_hc32l136.o(i.IRQ013_Handler) for IRQ013_Handler
    startup_hc32l136.o(RESET) refers to interrupts_hc32l136.o(i.IRQ014_Handler) for IRQ014_Handler
    startup_hc32l136.o(RESET) refers to interrupts_hc32l136.o(i.IRQ015_Handler) for IRQ015_Handler
    startup_hc32l136.o(RESET) refers to interrupts_hc32l136.o(i.IRQ016_Handler) for IRQ016_Handler
    startup_hc32l136.o(RESET) refers to interrupts_hc32l136.o(i.IRQ017_Handler) for IRQ017_Handler
    startup_hc32l136.o(RESET) refers to interrupts_hc32l136.o(i.IRQ018_Handler) for IRQ018_Handler
    startup_hc32l136.o(RESET) refers to interrupts_hc32l136.o(i.IRQ019_Handler) for IRQ019_Handler
    startup_hc32l136.o(RESET) refers to interrupts_hc32l136.o(i.IRQ020_Handler) for IRQ020_Handler
    startup_hc32l136.o(RESET) refers to interrupts_hc32l136.o(i.IRQ021_Handler) for IRQ021_Handler
    startup_hc32l136.o(RESET) refers to interrupts_hc32l136.o(i.IRQ022_Handler) for IRQ022_Handler
    startup_hc32l136.o(RESET) refers to interrupts_hc32l136.o(i.IRQ023_Handler) for IRQ023_Handler
    startup_hc32l136.o(RESET) refers to interrupts_hc32l136.o(i.IRQ024_Handler) for IRQ024_Handler
    startup_hc32l136.o(RESET) refers to interrupts_hc32l136.o(i.IRQ025_Handler) for IRQ025_Handler
    startup_hc32l136.o(RESET) refers to interrupts_hc32l136.o(i.IRQ026_Handler) for IRQ026_Handler
    startup_hc32l136.o(RESET) refers to interrupts_hc32l136.o(i.IRQ027_Handler) for IRQ027_Handler
    startup_hc32l136.o(RESET) refers to interrupts_hc32l136.o(i.IRQ028_Handler) for IRQ028_Handler
    startup_hc32l136.o(RESET) refers to interrupts_hc32l136.o(i.IRQ029_Handler) for IRQ029_Handler
    startup_hc32l136.o(RESET) refers to interrupts_hc32l136.o(i.IRQ030_Handler) for IRQ030_Handler
    startup_hc32l136.o(RESET) refers to interrupts_hc32l136.o(i.IRQ031_Handler) for IRQ031_Handler
    startup_hc32l136.o(.text) refers to system_hc32l136.o(i.SystemInit) for SystemInit
    startup_hc32l136.o(.text) refers to entry.o(.ARM.Collect$$$$00000000) for __main
    adc.o(i.Adc_ConfigIrq) refers to adc.o(.bss) for stcAdcIrqCalbaks
    adc.o(i.Adc_ConfigSqrChannel) refers to main.o(i.__ARM_common_switch8) for __ARM_common_switch8
    adc.o(i.Adc_IRQHandler) refers to adc.o(.bss) for stcAdcIrqCalbaks
    bt.o(i.Bt_Mode0_Init) refers to bt.o(.data) for pfnTim0Callback
    bt.o(i.Bt_Mode1_Init) refers to bt.o(.data) for pfnTim0Callback
    bt.o(i.Bt_Mode23_Init) refers to bt.o(.data) for pfnTim0Callback
    bt.o(i.Tim_IRQHandler) refers to bt.o(.data) for pfnTim0Callback
    ddl.o(i.delay100us) refers to uidiv.o(.text) for __aeabi_uidivmod
    ddl.o(i.delay100us) refers to system_hc32l136.o(.data) for SystemCoreClock
    ddl.o(i.delay10us) refers to uidiv.o(.text) for __aeabi_uidivmod
    ddl.o(i.delay10us) refers to system_hc32l136.o(.data) for SystemCoreClock
    ddl.o(i.delay1ms) refers to uidiv.o(.text) for __aeabi_uidivmod
    ddl.o(i.delay1ms) refers to system_hc32l136.o(.data) for SystemCoreClock
    ddl.o(i.delay1us_To_24) refers to uidiv.o(.text) for __aeabi_uidivmod
    ddl.o(i.delay1us_To_24) refers to system_hc32l136.o(.data) for SystemCoreClock
    ddl.o(i.fputc) refers to ddl.o(i.Debug_Output) for Debug_Output
    flash.o(i.EfRam_IRQHandler) refers to flash.o(.data) for pfnFlashCallback
    flash.o(i.Flash_Init) refers to memseta.o(.text) for __aeabi_memclr4
    flash.o(i.Flash_Init) refers to flash.o(.data) for pfnFlashCallback
    flash.o(i.Flash_Init) refers to flash.o(.constdata) for pu32PcgTimer4M
    gpio.o(i.Gpio_DisableIrq) refers to gpio.o(i._GpioEnableIrq) for _GpioEnableIrq
    gpio.o(i.Gpio_EnableIrq) refers to gpio.o(i._GpioEnableIrq) for _GpioEnableIrq
    interrupts_hc32l136.o(i.EnableNvic) refers to interrupts_hc32l136.o(i.__NVIC_SetPriority) for __NVIC_SetPriority
    interrupts_hc32l136.o(i.IRQ000_Handler) refers to key.o(i.Gpio_IRQHandler) for Gpio_IRQHandler
    interrupts_hc32l136.o(i.IRQ001_Handler) refers to key.o(i.Gpio_IRQHandler) for Gpio_IRQHandler
    interrupts_hc32l136.o(i.IRQ002_Handler) refers to key.o(i.Gpio_IRQHandler) for Gpio_IRQHandler
    interrupts_hc32l136.o(i.IRQ003_Handler) refers to key.o(i.Gpio_IRQHandler) for Gpio_IRQHandler
    interrupts_hc32l136.o(i.IRQ004_Handler) refers to dmac.o(i.Dma_IRQHandler) for Dma_IRQHandler
    interrupts_hc32l136.o(i.IRQ005_Handler) refers (Weak) to timer3.o(i.Tim3_IRQHandler) for Tim3_IRQHandler
    interrupts_hc32l136.o(i.IRQ006_Handler) refers (Weak) to uart.o(i.Uart_IRQHandler) for Uart_IRQHandler
    interrupts_hc32l136.o(i.IRQ007_Handler) refers (Weak) to uart.o(i.Uart_IRQHandler) for Uart_IRQHandler
    interrupts_hc32l136.o(i.IRQ008_Handler) refers (Weak) to lpuart.o(i.LpUart_IRQHandler) for LpUart_IRQHandler
    interrupts_hc32l136.o(i.IRQ009_Handler) refers (Weak) to lpuart.o(i.LpUart_IRQHandler) for LpUart_IRQHandler
    interrupts_hc32l136.o(i.IRQ014_Handler) refers to bt.o(i.Tim_IRQHandler) for Tim_IRQHandler
    interrupts_hc32l136.o(i.IRQ015_Handler) refers to bt.o(i.Tim_IRQHandler) for Tim_IRQHandler
    interrupts_hc32l136.o(i.IRQ016_Handler) refers to bt.o(i.Tim_IRQHandler) for Tim_IRQHandler
    interrupts_hc32l136.o(i.IRQ018_Handler) refers (Weak) to adt.o(i.Adt_IRQHandler) for Adt_IRQHandler
    interrupts_hc32l136.o(i.IRQ019_Handler) refers (Weak) to adt.o(i.Adt_IRQHandler) for Adt_IRQHandler
    interrupts_hc32l136.o(i.IRQ020_Handler) refers (Weak) to adt.o(i.Adt_IRQHandler) for Adt_IRQHandler
    interrupts_hc32l136.o(i.IRQ024_Handler) refers (Weak) to adc.o(i.Adc_IRQHandler) for Adc_IRQHandler
    interrupts_hc32l136.o(i.IRQ030_Handler) refers (Weak) to flash.o(i.EfRam_IRQHandler) for EfRam_IRQHandler
    interrupts_hc32l136.o(i.IRQ031_Handler) refers (Weak) to trim.o(i.ClkTrim_IRQHandler) for ClkTrim_IRQHandler
    timer3.o(i.Tim3_IRQHandler) refers to timer3.o(.data) for pfnTim3Callback
    timer3.o(i.Tim3_Mode0_Init) refers to timer3.o(.data) for pfnTim3Callback
    timer3.o(i.Tim3_Mode1_Init) refers to timer3.o(.data) for pfnTim3Callback
    timer3.o(i.Tim3_Mode23_DisableIrq) refers to main.o(i.__ARM_common_switch8) for __ARM_common_switch8
    timer3.o(i.Tim3_Mode23_EnableIrq) refers to main.o(i.__ARM_common_switch8) for __ARM_common_switch8
    timer3.o(i.Tim3_Mode23_Init) refers to timer3.o(.data) for pfnTim3Callback
    trim.o(i.ClkTrim_IRQHandler) refers to trim.o(.data) for pfnTrimCallback
    trim.o(i.Trim_ClearIntFlag) refers to main.o(i.__ARM_common_switch8) for __ARM_common_switch8
    trim.o(i.Trim_GetIntFlag) refers to main.o(i.__ARM_common_switch8) for __ARM_common_switch8
    trim.o(i.Trim_Init) refers to trim.o(.data) for pfnTrimCallback
    uart.o(i.UartGetInternDataPtr) refers to uart.o(.data) for m_astcUartInstanceDataLut
    uart.o(i.Uart_CalScnt) refers to uart.o(i.UartGetInternDataPtr) for UartGetInternDataPtr
    uart.o(i.Uart_CalScnt) refers to uidiv.o(.text) for __aeabi_uidivmod
    uart.o(i.Uart_ClrIsr) refers to uart.o(i.UartGetInternDataPtr) for UartGetInternDataPtr
    uart.o(i.Uart_ClrStatus) refers to uart.o(i.UartGetInternDataPtr) for UartGetInternDataPtr
    uart.o(i.Uart_ClrStatus) refers to main.o(i.__ARM_common_switch8) for __ARM_common_switch8
    uart.o(i.Uart_DisableFunc) refers to uart.o(i.UartGetInternDataPtr) for UartGetInternDataPtr
    uart.o(i.Uart_DisableFunc) refers to main.o(i.__ARM_common_switch8) for __ARM_common_switch8
    uart.o(i.Uart_DisableIrq) refers to uart.o(i.UartGetInternDataPtr) for UartGetInternDataPtr
    uart.o(i.Uart_DisableIrq) refers to main.o(i.__ARM_common_switch8) for __ARM_common_switch8
    uart.o(i.Uart_EnableFunc) refers to uart.o(i.UartGetInternDataPtr) for UartGetInternDataPtr
    uart.o(i.Uart_EnableFunc) refers to main.o(i.__ARM_common_switch8) for __ARM_common_switch8
    uart.o(i.Uart_EnableIrq) refers to uart.o(i.UartGetInternDataPtr) for UartGetInternDataPtr
    uart.o(i.Uart_EnableIrq) refers to main.o(i.__ARM_common_switch8) for __ARM_common_switch8
    uart.o(i.Uart_GetBaud) refers to uart.o(i.UartGetInternDataPtr) for UartGetInternDataPtr
    uart.o(i.Uart_GetBaud) refers to uidiv.o(.text) for __aeabi_uidivmod
    uart.o(i.Uart_GetIsr) refers to uart.o(i.UartGetInternDataPtr) for UartGetInternDataPtr
    uart.o(i.Uart_GetRb8) refers to uart.o(i.UartGetInternDataPtr) for UartGetInternDataPtr
    uart.o(i.Uart_GetStatus) refers to uart.o(i.UartGetInternDataPtr) for UartGetInternDataPtr
    uart.o(i.Uart_GetStatus) refers to main.o(i.__ARM_common_switch8) for __ARM_common_switch8
    uart.o(i.Uart_IRQHandler) refers to uart.o(i.UartGetInternDataPtr) for UartGetInternDataPtr
    uart.o(i.Uart_IRQHandler) refers to uart.o(i.Uart_ClrStatus) for Uart_ClrStatus
    uart.o(i.Uart_Init) refers to uart.o(i.UartGetInternDataPtr) for UartGetInternDataPtr
    uart.o(i.Uart_Init) refers to uart.o(i.Uart_SetMode) for Uart_SetMode
    uart.o(i.Uart_Init) refers to uart.o(i.Uart_SetStopBit) for Uart_SetStopBit
    uart.o(i.Uart_ReceiveData) refers to uart.o(i.UartGetInternDataPtr) for UartGetInternDataPtr
    uart.o(i.Uart_SendData) refers to uart.o(i.UartGetInternDataPtr) for UartGetInternDataPtr
    uart.o(i.Uart_SendData) refers to uart.o(i.Uart_ClrStatus) for Uart_ClrStatus
    uart.o(i.Uart_SendData) refers to uart.o(i.Uart_GetStatus) for Uart_GetStatus
    uart.o(i.Uart_SetBaud) refers to uart.o(i.UartGetInternDataPtr) for UartGetInternDataPtr
    uart.o(i.Uart_SetClkDiv) refers to uart.o(i.UartGetInternDataPtr) for UartGetInternDataPtr
    uart.o(i.Uart_SetMMDOrCk) refers to uart.o(i.UartGetInternDataPtr) for UartGetInternDataPtr
    uart.o(i.Uart_SetMode) refers to uart.o(i.UartGetInternDataPtr) for UartGetInternDataPtr
    uart.o(i.Uart_SetMultiMode) refers to uart.o(i.UartGetInternDataPtr) for UartGetInternDataPtr
    uart.o(i.Uart_SetSaddr) refers to uart.o(i.UartGetInternDataPtr) for UartGetInternDataPtr
    uart.o(i.Uart_SetSaddrEn) refers to uart.o(i.UartGetInternDataPtr) for UartGetInternDataPtr
    uart.o(i.Uart_SetStopBit) refers to uart.o(i.UartGetInternDataPtr) for UartGetInternDataPtr
    sysctrl.o(i.Sysctrl_ClkDeInit) refers to sysctrl.o(i.Sysctrl_SetRCHTrim) for Sysctrl_SetRCHTrim
    sysctrl.o(i.Sysctrl_ClkDeInit) refers to sysctrl.o(i.Sysctrl_ClkSourceEnable) for Sysctrl_ClkSourceEnable
    sysctrl.o(i.Sysctrl_ClkDeInit) refers to sysctrl.o(i.Sysctrl_SysClkSwitch) for Sysctrl_SysClkSwitch
    sysctrl.o(i.Sysctrl_ClkDeInit) refers to sysctrl.o(i.Sysctrl_SetHCLKDiv) for Sysctrl_SetHCLKDiv
    sysctrl.o(i.Sysctrl_ClkDeInit) refers to sysctrl.o(i.Sysctrl_SetPCLKDiv) for Sysctrl_SetPCLKDiv
    sysctrl.o(i.Sysctrl_ClkInit) refers to main.o(i.__ARM_common_switch8) for __ARM_common_switch8
    sysctrl.o(i.Sysctrl_ClkInit) refers to sysctrl.o(i.Sysctrl_XTHDriverConfig) for Sysctrl_XTHDriverConfig
    sysctrl.o(i.Sysctrl_ClkInit) refers to sysctrl.o(i.Sysctrl_SetXTHStableTime) for Sysctrl_SetXTHStableTime
    sysctrl.o(i.Sysctrl_ClkInit) refers to sysctrl.o(i.Sysctrl_SetRCLStableTime) for Sysctrl_SetRCLStableTime
    sysctrl.o(i.Sysctrl_ClkInit) refers to sysctrl.o(i.Sysctrl_XTLDriverConfig) for Sysctrl_XTLDriverConfig
    sysctrl.o(i.Sysctrl_ClkInit) refers to sysctrl.o(i.Sysctrl_SetXTLStableTime) for Sysctrl_SetXTLStableTime
    sysctrl.o(i.Sysctrl_ClkInit) refers to sysctrl.o(i.Sysctrl_SetPLLStableTime) for Sysctrl_SetPLLStableTime
    sysctrl.o(i.Sysctrl_ClkInit) refers to sysctrl.o(i.Sysctrl_ClkSourceEnable) for Sysctrl_ClkSourceEnable
    sysctrl.o(i.Sysctrl_ClkInit) refers to sysctrl.o(i.Sysctrl_SysClkSwitch) for Sysctrl_SysClkSwitch
    sysctrl.o(i.Sysctrl_ClkInit) refers to sysctrl.o(i.Sysctrl_SetHCLKDiv) for Sysctrl_SetHCLKDiv
    sysctrl.o(i.Sysctrl_ClkInit) refers to sysctrl.o(i.Sysctrl_SetPCLKDiv) for Sysctrl_SetPCLKDiv
    sysctrl.o(i.Sysctrl_ClkSourceEnable) refers to sysctrl.o(i._SysctrlUnlock) for _SysctrlUnlock
    sysctrl.o(i.Sysctrl_ClkSourceEnable) refers to main.o(i.__ARM_common_switch8) for __ARM_common_switch8
    sysctrl.o(i.Sysctrl_GetHClkFreq) refers to memcpya.o(.text) for __aeabi_memcpy4
    sysctrl.o(i.Sysctrl_GetHClkFreq) refers to main.o(i.__ARM_common_switch8) for __ARM_common_switch8
    sysctrl.o(i.Sysctrl_GetHClkFreq) refers to sysctrl.o(.constdata) for .constdata
    sysctrl.o(i.Sysctrl_GetPClkFreq) refers to sysctrl.o(i.Sysctrl_GetHClkFreq) for Sysctrl_GetHClkFreq
    sysctrl.o(i.Sysctrl_SetFunc) refers to sysctrl.o(i._SysctrlUnlock) for _SysctrlUnlock
    sysctrl.o(i.Sysctrl_SetFunc) refers to main.o(i.__ARM_common_switch8) for __ARM_common_switch8
    sysctrl.o(i.Sysctrl_SetHCLKDiv) refers to sysctrl.o(i._SysctrlUnlock) for _SysctrlUnlock
    sysctrl.o(i.Sysctrl_SetPCLKDiv) refers to sysctrl.o(i._SysctrlUnlock) for _SysctrlUnlock
    sysctrl.o(i.Sysctrl_SetRCHTrim) refers to main.o(i.__ARM_common_switch8) for __ARM_common_switch8
    sysctrl.o(i.Sysctrl_SetRTCAdjustClkFreq) refers to sysctrl.o(i._SysctrlUnlock) for _SysctrlUnlock
    sysctrl.o(i.Sysctrl_SysClkSwitch) refers to sysctrl.o(i._SysctrlUnlock) for _SysctrlUnlock
    sysctrl.o(i.Sysctrl_SysClkSwitch) refers to system_hc32l136.o(i.SystemCoreClockUpdate) for SystemCoreClockUpdate
    dmac.o(i.Dma_ConfigIrq) refers to dmac.o(.bss) for stcDmaIrqCalbaks
    dmac.o(i.Dma_DisableIrq) refers to dmac.o(i.Dma_DisableChannelIrq) for Dma_DisableChannelIrq
    dmac.o(i.Dma_DisableIrq) refers to dmac.o(i.Dma_DisableChannelErrIrq) for Dma_DisableChannelErrIrq
    dmac.o(i.Dma_EnableIrq) refers to dmac.o(i.Dma_EnableChannelIrq) for Dma_EnableChannelIrq
    dmac.o(i.Dma_EnableIrq) refers to dmac.o(i.Dma_EnableChannelErrIrq) for Dma_EnableChannelErrIrq
    dmac.o(i.Dma_IRQHandler) refers to dmac.o(.bss) for stcDmaIrqCalbaks
    adt.o(i.AdtDisableNvic) refers to adt.o(i.__NVIC_ClearPendingIRQ) for __NVIC_ClearPendingIRQ
    adt.o(i.AdtDisableNvic) refers to adt.o(i.__NVIC_SetPriority) for __NVIC_SetPriority
    adt.o(i.AdtEnableNvic) refers to adt.o(i.__NVIC_ClearPendingIRQ) for __NVIC_ClearPendingIRQ
    adt.o(i.AdtEnableNvic) refers to adt.o(i.__NVIC_SetPriority) for __NVIC_SetPriority
    adt.o(i.Adt_ConfigIrq) refers to adt.o(.bss) for pfnAdtIrqCbk
    adt.o(i.Adt_DeInit) refers to adt.o(i.AdtDisableNvic) for AdtDisableNvic
    adt.o(i.Adt_DeInit) refers to adt.o(.bss) for pfnAdtIrqCbk
    adt.o(i.Adt_Disable3Cfg) refers to adt.o(i.Adt_ClearBrakePort) for Adt_ClearBrakePort
    adt.o(i.Adt_Disable3Cfg) refers to adt.o(i.Adt_EnableBrakePort) for Adt_EnableBrakePort
    adt.o(i.Adt_IRQHandler) refers to adt.o(.bss) for pfnAdtIrqCbk
    adt.o(i.Adt_Init) refers to adt.o(i.AdtEnableNvic) for AdtEnableNvic
    adt.o(i.Adt_Init) refers to adt.o(.bss) for pfnAdtIrqCbk
    lpuart.o(i.LPUartGetInternDataPtr) refers to lpuart.o(.data) for m_astcLPUartInstanceDataLut
    lpuart.o(i.LPUart_CalScnt) refers to lpuart.o(i.LPUartGetInternDataPtr) for LPUartGetInternDataPtr
    lpuart.o(i.LPUart_CalScnt) refers to uidiv.o(.text) for __aeabi_uidivmod
    lpuart.o(i.LPUart_ClrIsr) refers to lpuart.o(i.LPUartGetInternDataPtr) for LPUartGetInternDataPtr
    lpuart.o(i.LPUart_ClrStatus) refers to lpuart.o(i.LPUartGetInternDataPtr) for LPUartGetInternDataPtr
    lpuart.o(i.LPUart_ClrStatus) refers to main.o(i.__ARM_common_switch8) for __ARM_common_switch8
    lpuart.o(i.LPUart_DisableFunc) refers to lpuart.o(i.LPUartGetInternDataPtr) for LPUartGetInternDataPtr
    lpuart.o(i.LPUart_DisableFunc) refers to main.o(i.__ARM_common_switch8) for __ARM_common_switch8
    lpuart.o(i.LPUart_DisableIrq) refers to lpuart.o(i.LPUartGetInternDataPtr) for LPUartGetInternDataPtr
    lpuart.o(i.LPUart_DisableIrq) refers to main.o(i.__ARM_common_switch8) for __ARM_common_switch8
    lpuart.o(i.LPUart_EnableFunc) refers to lpuart.o(i.LPUartGetInternDataPtr) for LPUartGetInternDataPtr
    lpuart.o(i.LPUart_EnableFunc) refers to main.o(i.__ARM_common_switch8) for __ARM_common_switch8
    lpuart.o(i.LPUart_EnableIrq) refers to lpuart.o(i.LPUartGetInternDataPtr) for LPUartGetInternDataPtr
    lpuart.o(i.LPUart_EnableIrq) refers to main.o(i.__ARM_common_switch8) for __ARM_common_switch8
    lpuart.o(i.LPUart_GetBaud) refers to lpuart.o(i.LPUartGetInternDataPtr) for LPUartGetInternDataPtr
    lpuart.o(i.LPUart_GetBaud) refers to uidiv.o(.text) for __aeabi_uidivmod
    lpuart.o(i.LPUart_GetIsr) refers to lpuart.o(i.LPUartGetInternDataPtr) for LPUartGetInternDataPtr
    lpuart.o(i.LPUart_GetRb8) refers to lpuart.o(i.LPUartGetInternDataPtr) for LPUartGetInternDataPtr
    lpuart.o(i.LPUart_GetSclk) refers to lpuart.o(i.LPUartGetInternDataPtr) for LPUartGetInternDataPtr
    lpuart.o(i.LPUart_GetSclk) refers to sysctrl.o(i.Sysctrl_GetPClkFreq) for Sysctrl_GetPClkFreq
    lpuart.o(i.LPUart_GetStatus) refers to lpuart.o(i.LPUartGetInternDataPtr) for LPUartGetInternDataPtr
    lpuart.o(i.LPUart_GetStatus) refers to main.o(i.__ARM_common_switch8) for __ARM_common_switch8
    lpuart.o(i.LPUart_Init) refers to lpuart.o(i.LPUartGetInternDataPtr) for LPUartGetInternDataPtr
    lpuart.o(i.LPUart_Init) refers to lpuart.o(i.LPUart_SelSclk) for LPUart_SelSclk
    lpuart.o(i.LPUart_Init) refers to lpuart.o(i.LPUart_SetClkDiv) for LPUart_SetClkDiv
    lpuart.o(i.LPUart_Init) refers to lpuart.o(i.LPUart_SetMode) for LPUart_SetMode
    lpuart.o(i.LPUart_Init) refers to lpuart.o(i.LPUart_SetStopBit) for LPUart_SetStopBit
    lpuart.o(i.LPUart_ReceiveData) refers to lpuart.o(i.LPUartGetInternDataPtr) for LPUartGetInternDataPtr
    lpuart.o(i.LPUart_SelSclk) refers to lpuart.o(i.LPUartGetInternDataPtr) for LPUartGetInternDataPtr
    lpuart.o(i.LPUart_SendData) refers to lpuart.o(i.LPUartGetInternDataPtr) for LPUartGetInternDataPtr
    lpuart.o(i.LPUart_SendData) refers to lpuart.o(i.LPUart_ClrStatus) for LPUart_ClrStatus
    lpuart.o(i.LPUart_SendData) refers to lpuart.o(i.LPUart_GetStatus) for LPUart_GetStatus
    lpuart.o(i.LPUart_SetBaud) refers to lpuart.o(i.LPUartGetInternDataPtr) for LPUartGetInternDataPtr
    lpuart.o(i.LPUart_SetClkDiv) refers to lpuart.o(i.LPUartGetInternDataPtr) for LPUartGetInternDataPtr
    lpuart.o(i.LPUart_SetMMDOrCk) refers to lpuart.o(i.LPUartGetInternDataPtr) for LPUartGetInternDataPtr
    lpuart.o(i.LPUart_SetMode) refers to lpuart.o(i.LPUartGetInternDataPtr) for LPUartGetInternDataPtr
    lpuart.o(i.LPUart_SetMultiMode) refers to lpuart.o(i.LPUartGetInternDataPtr) for LPUartGetInternDataPtr
    lpuart.o(i.LPUart_SetSaddr) refers to lpuart.o(i.LPUartGetInternDataPtr) for LPUartGetInternDataPtr
    lpuart.o(i.LPUart_SetSaddrEn) refers to lpuart.o(i.LPUartGetInternDataPtr) for LPUartGetInternDataPtr
    lpuart.o(i.LPUart_SetStopBit) refers to lpuart.o(i.LPUartGetInternDataPtr) for LPUartGetInternDataPtr
    lpuart.o(i.LpUart_IRQHandler) refers to lpuart.o(i.LPUartGetInternDataPtr) for LPUartGetInternDataPtr
    lpuart.o(i.LpUart_IRQHandler) refers to lpuart.o(i.LPUart_ClrStatus) for LPUart_ClrStatus
    entry.o(.ARM.Collect$$$$00000000) refers (Special) to entry10a.o(.ARM.Collect$$$$0000000D) for __rt_final_cpp
    entry.o(.ARM.Collect$$$$00000000) refers (Special) to entry11a.o(.ARM.Collect$$$$0000000F) for __rt_final_exit
    entry.o(.ARM.Collect$$$$00000000) refers (Special) to entry7b.o(.ARM.Collect$$$$00000008) for _main_clock
    entry.o(.ARM.Collect$$$$00000000) refers (Special) to entry8b.o(.ARM.Collect$$$$0000000A) for _main_cpp_init
    entry.o(.ARM.Collect$$$$00000000) refers (Special) to entry9a.o(.ARM.Collect$$$$0000000B) for _main_init
    entry.o(.ARM.Collect$$$$00000000) refers (Special) to entry5.o(.ARM.Collect$$$$00000004) for _main_scatterload
    entry.o(.ARM.Collect$$$$00000000) refers (Special) to entry2.o(.ARM.Collect$$$$00000001) for _main_stk
    idiv.o(.text) refers to uidiv.o(.text) for __aeabi_uidivmod
    fadd.o(.text) refers (Special) to iusefp.o(.text) for __I$use$fp
    fadd.o(.text) refers to fepilogue.o(.text) for _float_epilogue
    fmul.o(.text) refers (Special) to iusefp.o(.text) for __I$use$fp
    fdiv.o(.text) refers (Special) to iusefp.o(.text) for __I$use$fp
    fdiv.o(.text) refers to fepilogue.o(.text) for _float_round
    ffltui.o(.text) refers (Special) to iusefp.o(.text) for __I$use$fp
    ffltui.o(.text) refers to fepilogue.o(.text) for _float_epilogue
    ffixui.o(.text) refers (Special) to iusefp.o(.text) for __I$use$fp
    cfcmple.o(.text) refers (Special) to iusefp.o(.text) for __I$use$fp
    cfrcmple.o(.text) refers (Special) to iusefp.o(.text) for __I$use$fp
    entry2.o(.ARM.Collect$$$$00000001) refers to entry2.o(.ARM.Collect$$$$00002712) for __lit__00000000
    entry2.o(.ARM.Collect$$$$00002712) refers to startup_hc32l136.o(STACK) for __initial_sp
    entry2.o(__vectab_stack_and_reset_area) refers to startup_hc32l136.o(STACK) for __initial_sp
    entry2.o(__vectab_stack_and_reset_area) refers to entry.o(.ARM.Collect$$$$00000000) for __main
    entry5.o(.ARM.Collect$$$$00000004) refers to init.o(.text) for __scatterload
    entry9a.o(.ARM.Collect$$$$0000000B) refers to main.o(i.main) for main
    entry9b.o(.ARM.Collect$$$$0000000C) refers to main.o(i.main) for main
    init.o(.text) refers to entry5.o(.ARM.Collect$$$$00000004) for __main_after_scatterload


==============================================================================

Removing Unused input sections from the image.

    Removing flash_handler.o(.rev16_text), (4 bytes).
    Removing flash_handler.o(.revsh_text), (4 bytes).
    Removing flash_handler.o(i.Flash_Data_Read), (26 bytes).
    Removing flash_handler.o(i.Flash_Data_Writer), (208 bytes).
    Removing flash_handler.o(i.Flash_Int_CallBack), (46 bytes).
    Removing flash_handler.o(i.Jump_AppRun), (48 bytes).
    Removing flash_handler.o(i.VectorTableOffset), (36 bytes).
    Removing flash_handler.o(.data), (12 bytes).
    Removing timehandler.o(.rev16_text), (4 bytes).
    Removing timehandler.o(.revsh_text), (4 bytes).
    Removing timehandler.o(i.Boost_Stop), (16 bytes).
    Removing timehandler.o(i.Ems_SleepInit), (28 bytes).
    Removing timehandler.o(i.TimestampStop), (42 bytes).
    Removing timehandler.o(i.Update2TimeSleep), (18 bytes).
    Removing uarthandler.o(.rev16_text), (4 bytes).
    Removing uarthandler.o(.revsh_text), (4 bytes).
    Removing uarthandler.o(i.UartToSendData), (34 bytes).
    Removing main.o(.rev16_text), (4 bytes).
    Removing main.o(.revsh_text), (4 bytes).
    Removing main.o(i.ClkInit4M), (70 bytes).
    Removing main.o(i.PeripheralBatterySwInit), (54 bytes).
    Removing main.o(i.SysEnterSleepMode), (34 bytes).
    Removing key.o(.rev16_text), (4 bytes).
    Removing key.o(.revsh_text), (4 bytes).
    Removing key.o(i.Battery_Chg_Status_Enable_IRQ), (28 bytes).
    Removing key.o(i.EMS_Port_Pin_Disable_IRQ), (14 bytes).
    Removing key.o(i.EMS_Port_Pin_Enable_IRQ), (24 bytes).
    Removing key.o(i.ExtTrigInterrupteRouseEnable), (16 bytes).
    Removing key.o(i.HallSwitchTrigInterrupteIRQEnable), (30 bytes).
    Removing key.o(i.KeyEnableIRQ), (70 bytes).
    Removing key.o(i.KeyInit), (72 bytes).
    Removing key.o(i.KeyInit2), (72 bytes).
    Removing adcsample.o(.rev16_text), (4 bytes).
    Removing adcsample.o(.revsh_text), (4 bytes).
    Removing adcsample.o(i.AdcSampleSleepInit), (30 bytes).
    Removing ems.o(i.Ems_Stop), (12 bytes).
    Removing iic.o(.rev16_text), (4 bytes).
    Removing iic.o(.revsh_text), (4 bytes).
    Removing iic.o(i.IIC_ACK), (58 bytes).
    Removing iic.o(i.IIC_Init), (30 bytes).
    Removing iic.o(i.IIC_NACK), (58 bytes).
    Removing iic.o(i.IIC_Port_Init), (42 bytes).
    Removing iic.o(i.IIC_Read_Byte), (98 bytes).
    Removing iic.o(i.IIC_SCL_Out_Status), (30 bytes).
    Removing iic.o(i.IIC_SDA_Input_Status), (14 bytes).
    Removing iic.o(i.IIC_SDA_Out_Dir), (32 bytes).
    Removing iic.o(i.IIC_SDA_Out_Status), (30 bytes).
    Removing iic.o(i.IIC_Send_Byte), (104 bytes).
    Removing iic.o(i.IIC_Start), (58 bytes).
    Removing iic.o(i.IIC_Stop), (66 bytes).
    Removing iic.o(i.IIC_Waite_ACK), (84 bytes).
    Removing iic.o(i.delayTous), (30 bytes).
    Removing iic.o(.data), (8 bytes).
    Removing ems_port.o(.rev16_text), (4 bytes).
    Removing ems_port.o(.revsh_text), (4 bytes).
    Removing ems_port.o(i.Ems_AB_And_CD_Idle), (70 bytes).
    Removing ems_port.o(i.Ems_AToC_And_Ems_BToD_PNAlter_N), (152 bytes).
    Removing ems_port.o(i.Ems_AToC_And_Ems_BToD_PNAlter_P), (152 bytes).
    Removing ems_port.o(i.Ems_AToD_And_Ems_BToC_PNAlter_N), (152 bytes).
    Removing ems_port.o(i.Ems_AToD_And_Ems_BToC_PNAlter_P), (152 bytes).
    Removing ems_port.o(i.Ems_A_To_Ems_B_PNAlter_Four_N), (88 bytes).
    Removing ems_port.o(i.Ems_A_To_Ems_B_PNAlter_Four_P), (88 bytes).
    Removing ems_port.o(i.Ems_A_To_Ems_C_FS_N), (44 bytes).
    Removing ems_port.o(i.Ems_A_To_Ems_C_FS_P), (44 bytes).
    Removing ems_port.o(i.Ems_A_To_Ems_C_PNAlter_Four_N), (88 bytes).
    Removing ems_port.o(i.Ems_A_To_Ems_C_PNAlter_Four_P), (88 bytes).
    Removing ems_port.o(i.Ems_A_To_Ems_D_FS_N), (44 bytes).
    Removing ems_port.o(i.Ems_A_To_Ems_D_FS_P), (44 bytes).
    Removing ems_port.o(i.Ems_B_To_Ems_C_FS_N), (44 bytes).
    Removing ems_port.o(i.Ems_B_To_Ems_C_FS_P), (44 bytes).
    Removing ems_port.o(i.Ems_B_To_Ems_C_PNAlter_Four_N), (88 bytes).
    Removing ems_port.o(i.Ems_B_To_Ems_C_PNAlter_Four_P), (88 bytes).
    Removing ems_port.o(i.Ems_B_To_Ems_D_FS_N), (44 bytes).
    Removing ems_port.o(i.Ems_B_To_Ems_D_FS_P), (44 bytes).
    Removing ems_port.o(i.Ems_B_To_Ems_D_PNAlter_Four_N), (88 bytes).
    Removing ems_port.o(i.Ems_B_To_Ems_D_PNAlter_Four_P), (88 bytes).
    Removing ems_port.o(i.Ems_C_To_Ems_D_Double), (76 bytes).
    Removing ems_port.o(i.Ems_C_To_Ems_D_FS_N), (44 bytes).
    Removing ems_port.o(i.Ems_C_To_Ems_D_FS_P), (44 bytes).
    Removing ems_port.o(i.Ems_C_To_Ems_D_PNAlter_Four_N), (88 bytes).
    Removing ems_port.o(i.Ems_C_To_Ems_D_PNAlter_Four_P), (88 bytes).
    Removing ems_port.o(i.Ems_C_To_Ems_D_PNAlter_N), (88 bytes).
    Removing ems_port.o(i.Ems_C_To_Ems_D_PNAlter_P), (88 bytes).
    Removing ems_port.o(i.Ems_C_To_Ems_D_Single_N), (44 bytes).
    Removing ems_port.o(i.Ems_C_To_Ems_D_Single_P), (44 bytes).
    Removing ems_port.o(i.Ems_D_To_Ems_A_PNAlter_Four_N), (88 bytes).
    Removing ems_port.o(i.Ems_D_To_Ems_A_PNAlter_Four_P), (88 bytes).
    Removing hc595.o(.rev16_text), (4 bytes).
    Removing hc595.o(.revsh_text), (4 bytes).
    Removing hc595.o(i.HC595_Init), (82 bytes).
    Removing hc595.o(i.HC595_SendByte), (100 bytes).
    Removing hc595.o(i.Heater_To_Port_ClrIO), (28 bytes).
    Removing hc595.o(i.Heater_To_Port_SetIO), (28 bytes).
    Removing hc595.o(i.Led_All_Close), (28 bytes).
    Removing hc595.o(i.Led_Blue_Close), (8 bytes).
    Removing hc595.o(i.Led_Blue_ClrIO), (28 bytes).
    Removing hc595.o(i.Led_Blue_SetIO), (28 bytes).
    Removing hc595.o(i.Led_Bright_Blue_Close_Red_Green), (32 bytes).
    Removing hc595.o(i.Led_Bright_Green_Close_Blue_Red), (40 bytes).
    Removing hc595.o(i.Led_Bright_Red_Close_Blue_Green), (40 bytes).
    Removing hc595.o(i.Led_Green_Close), (8 bytes).
    Removing hc595.o(i.Led_Green_ClrIO), (28 bytes).
    Removing hc595.o(i.Led_Green_SetIO), (28 bytes).
    Removing hc595.o(i.Led_Red_Close), (8 bytes).
    Removing hc595.o(i.Led_Red_ClrIO), (28 bytes).
    Removing hc595.o(i.Led_Red_SetIO), (28 bytes).
    Removing hc595.o(i.Motor_Vibration_ClrIO), (28 bytes).
    Removing hc595.o(i.Motor_Vibration_SetIO), (28 bytes).
    Removing hc595.o(i.delay_us_ms), (30 bytes).
    Removing hc595.o(.data), (1 bytes).
    Removing ledmotor.o(.rev16_text), (4 bytes).
    Removing ledmotor.o(.revsh_text), (4 bytes).
    Removing system_hc32l136.o(.rev16_text), (4 bytes).
    Removing system_hc32l136.o(.revsh_text), (4 bytes).
    Removing startup_hc32l136.o(HEAP), (512 bytes).
    Removing adc.o(.rev16_text), (4 bytes).
    Removing adc.o(.revsh_text), (4 bytes).
    Removing adc.o(i.Adc_ClrAccResult), (20 bytes).
    Removing adc.o(i.Adc_ClrHtIrqState), (20 bytes).
    Removing adc.o(i.Adc_ClrJqrIrqState), (20 bytes).
    Removing adc.o(i.Adc_ClrLtIrqState), (20 bytes).
    Removing adc.o(i.Adc_ClrRegIrqState), (20 bytes).
    Removing adc.o(i.Adc_ClrSglIrqState), (20 bytes).
    Removing adc.o(i.Adc_ClrSqrIrqState), (20 bytes).
    Removing adc.o(i.Adc_ConfigIrq), (116 bytes).
    Removing adc.o(i.Adc_ConfigJqrChannel), (132 bytes).
    Removing adc.o(i.Adc_ConfigJqrMode), (96 bytes).
    Removing adc.o(i.Adc_ConfigSglChannel), (36 bytes).
    Removing adc.o(i.Adc_ConfigSglMode), (44 bytes).
    Removing adc.o(i.Adc_DeInit), (264 bytes).
    Removing adc.o(i.Adc_Disable), (20 bytes).
    Removing adc.o(i.Adc_DisableIrq), (44 bytes).
    Removing adc.o(i.Adc_EnableIrq), (24 bytes).
    Removing adc.o(i.Adc_ExtTrigCfg), (72 bytes).
    Removing adc.o(i.Adc_GetAccResult), (28 bytes).
    Removing adc.o(i.Adc_GetIrqState), (68 bytes).
    Removing adc.o(i.Adc_GetJqrResult), (36 bytes).
    Removing adc.o(i.Adc_GetSglResult), (28 bytes).
    Removing adc.o(i.Adc_GetSqrResult), (36 bytes).
    Removing adc.o(i.Adc_IRQHandler), (244 bytes).
    Removing adc.o(i.Adc_JQR_Start), (20 bytes).
    Removing adc.o(i.Adc_JQR_Stop), (20 bytes).
    Removing adc.o(i.Adc_PollHTBusyState), (16 bytes).
    Removing adc.o(i.Adc_PollJqrBusyState), (16 bytes).
    Removing adc.o(i.Adc_PollLtBusyState), (16 bytes).
    Removing adc.o(i.Adc_PollRegBusyState), (16 bytes).
    Removing adc.o(i.Adc_PollSglBusyState), (16 bytes).
    Removing adc.o(i.Adc_PollSqrBusyState), (16 bytes).
    Removing adc.o(i.Adc_SGL_Start), (20 bytes).
    Removing adc.o(i.Adc_SGL_Stop), (20 bytes).
    Removing adc.o(i.Adc_SQR_Stop), (20 bytes).
    Removing adc.o(i.Adc_SetAlign), (32 bytes).
    Removing adc.o(i.Adc_ThresholdCfg), (208 bytes).
    Removing adc.o(.bss), (24 bytes).
    Removing bt.o(.rev16_text), (4 bytes).
    Removing bt.o(.revsh_text), (4 bytes).
    Removing bt.o(i.Bt_M0_ARRSet), (96 bytes).
    Removing bt.o(i.Bt_M0_Cnt16Get), (64 bytes).
    Removing bt.o(i.Bt_M0_Cnt16Set), (96 bytes).
    Removing bt.o(i.Bt_M0_Cnt32Get), (56 bytes).
    Removing bt.o(i.Bt_M0_Cnt32Set), (72 bytes).
    Removing bt.o(i.Bt_M0_EnTOG_Output), (36 bytes).
    Removing bt.o(i.Bt_M0_Run), (28 bytes).
    Removing bt.o(i.Bt_M0_Stop), (28 bytes).
    Removing bt.o(i.Bt_M1_Cnt16Get), (64 bytes).
    Removing bt.o(i.Bt_M1_Cnt16Set), (96 bytes).
    Removing bt.o(i.Bt_M1_Input_Config), (152 bytes).
    Removing bt.o(i.Bt_M1_PWC_CapValueGet), (64 bytes).
    Removing bt.o(i.Bt_M1_PWC_Edge_Sel), (132 bytes).
    Removing bt.o(i.Bt_M1_Run), (28 bytes).
    Removing bt.o(i.Bt_M1_Stop), (28 bytes).
    Removing bt.o(i.Bt_M23_BrakeInput_Config), (192 bytes).
    Removing bt.o(i.Bt_M23_CCR_Get), (40 bytes).
    Removing bt.o(i.Bt_M23_CCR_Set), (60 bytes).
    Removing bt.o(i.Bt_M23_Cnt16Get), (24 bytes).
    Removing bt.o(i.Bt_M23_DT_Config), (52 bytes).
    Removing bt.o(i.Bt_M23_ETRInput_Config), (60 bytes).
    Removing bt.o(i.Bt_M23_EnDMA), (112 bytes).
    Removing bt.o(i.Bt_M23_EnSwBk), (32 bytes).
    Removing bt.o(i.Bt_M23_EnSwTrig), (32 bytes).
    Removing bt.o(i.Bt_M23_EnSwTrigCapCmpA), (28 bytes).
    Removing bt.o(i.Bt_M23_EnSwTrigCapCmpB), (28 bytes).
    Removing bt.o(i.Bt_M23_EnSwUev), (32 bytes).
    Removing bt.o(i.Bt_M23_GateFuncSel), (76 bytes).
    Removing bt.o(i.Bt_M23_MasterSlave_Set), (96 bytes).
    Removing bt.o(i.Bt_M23_OCRefClr), (60 bytes).
    Removing bt.o(i.Bt_M23_PortInput_Config), (144 bytes).
    Removing bt.o(i.Bt_M23_PortOutput_Config), (184 bytes).
    Removing bt.o(i.Bt_M23_Stop), (28 bytes).
    Removing bt.o(i.Bt_M23_TrigADC_Config), (92 bytes).
    Removing bt.o(i.Bt_Mode0_DisableIrq), (28 bytes).
    Removing bt.o(i.Bt_Mode0_EnableIrq), (28 bytes).
    Removing bt.o(i.Bt_Mode0_Init), (560 bytes).
    Removing bt.o(i.Bt_Mode1_DisableIrq), (60 bytes).
    Removing bt.o(i.Bt_Mode1_EnableIrq), (64 bytes).
    Removing bt.o(i.Bt_Mode1_Init), (356 bytes).
    Removing bt.o(i.Bt_Mode23_DisableIrq), (112 bytes).
    Removing ddl.o(.rev16_text), (4 bytes).
    Removing ddl.o(.revsh_text), (4 bytes).
    Removing ddl.o(i.DDL_WAIT_LOOP_HOOK), (2 bytes).
    Removing ddl.o(i.Debug_Output), (2 bytes).
    Removing ddl.o(i.Debug_UartInit), (2 bytes).
    Removing ddl.o(i.Log2), (24 bytes).
    Removing ddl.o(i.__backspace), (4 bytes).
    Removing ddl.o(i._sys_exit), (4 bytes).
    Removing ddl.o(i._ttywrch), (2 bytes).
    Removing ddl.o(i.delay100us), (92 bytes).
    Removing ddl.o(i.delay1ms), (88 bytes).
    Removing ddl.o(i.delay1us_To_24), (92 bytes).
    Removing ddl.o(i.fputc), (26 bytes).
    Removing ddl.o(.data), (4 bytes).
    Removing flash.o(.rev16_text), (4 bytes).
    Removing flash.o(.revsh_text), (4 bytes).
    Removing flash.o(i.EfRam_IRQHandler), (24 bytes).
    Removing flash.o(i.Flash_ChipErase), (240 bytes).
    Removing flash.o(i.Flash_ClearIntFlag), (80 bytes).
    Removing flash.o(i.Flash_DisableIrq), (124 bytes).
    Removing flash.o(i.Flash_EnableIrq), (124 bytes).
    Removing flash.o(i.Flash_GetIntFlag), (44 bytes).
    Removing flash.o(i.Flash_Init), (300 bytes).
    Removing flash.o(i.Flash_Lock), (44 bytes).
    Removing flash.o(i.Flash_SectorErase), (260 bytes).
    Removing flash.o(i.Flash_Unlock), (44 bytes).
    Removing flash.o(i.Flash_WriteByte), (260 bytes).
    Removing flash.o(i.Flash_WriteHalfWord), (260 bytes).
    Removing flash.o(i.Flash_WriteWord), (260 bytes).
    Removing flash.o(.constdata), (32 bytes).
    Removing flash.o(.data), (4 bytes).
    Removing gpio.o(.rev16_text), (4 bytes).
    Removing gpio.o(.revsh_text), (4 bytes).
    Removing gpio.o(i.Gpio_ClrPort), (16 bytes).
    Removing gpio.o(i.Gpio_GetInputData), (16 bytes).
    Removing gpio.o(i.Gpio_ReadOutputIO), (20 bytes).
    Removing gpio.o(i.Gpio_SetClrPort), (16 bytes).
    Removing gpio.o(i.Gpio_SetPort), (16 bytes).
    Removing gpio.o(i.Gpio_SfExtClkConfig), (28 bytes).
    Removing gpio.o(i.Gpio_SfHClkOutputConfig), (60 bytes).
    Removing gpio.o(i.Gpio_SfIrPolConfig), (36 bytes).
    Removing gpio.o(i.Gpio_SfIrqModeConfig), (28 bytes).
    Removing gpio.o(i.Gpio_SfPClkOutputConfig), (60 bytes).
    Removing gpio.o(i.Gpio_SfPcaConfig), (60 bytes).
    Removing gpio.o(i.Gpio_SfSsnConfig), (60 bytes).
    Removing gpio.o(i.Gpio_SfTimCConfig), (40 bytes).
    Removing gpio.o(i.Gpio_SfTimEConfig), (40 bytes).
    Removing gpio.o(i.Gpio_SfTimGConfig), (40 bytes).
    Removing gpio.o(i.Gpio_WriteOutputIO), (56 bytes).
    Removing interrupts_hc32l136.o(.rev16_text), (4 bytes).
    Removing interrupts_hc32l136.o(.revsh_text), (4 bytes).
    Removing timer3.o(.rev16_text), (4 bytes).
    Removing timer3.o(.revsh_text), (4 bytes).
    Removing timer3.o(i.Tim3_ClearAllIntFlag), (188 bytes).
    Removing timer3.o(i.Tim3_IRQHandler), (36 bytes).
    Removing timer3.o(i.Tim3_M0_ARRSet), (28 bytes).
    Removing timer3.o(i.Tim3_M0_Cnt16Get), (16 bytes).
    Removing timer3.o(i.Tim3_M0_Cnt16Set), (28 bytes).
    Removing timer3.o(i.Tim3_M0_Cnt32Get), (12 bytes).
    Removing timer3.o(i.Tim3_M0_Cnt32Set), (20 bytes).
    Removing timer3.o(i.Tim3_M0_EnTOG_Output), (36 bytes).
    Removing timer3.o(i.Tim3_M0_Run), (24 bytes).
    Removing timer3.o(i.Tim3_M0_Stop), (20 bytes).
    Removing timer3.o(i.Tim3_M1_Cnt16Get), (16 bytes).
    Removing timer3.o(i.Tim3_M1_Cnt16Set), (28 bytes).
    Removing timer3.o(i.Tim3_M1_Input_Config), (172 bytes).
    Removing timer3.o(i.Tim3_M1_PWC_CapValueGet), (16 bytes).
    Removing timer3.o(i.Tim3_M1_PWC_Edge_Sel), (152 bytes).
    Removing timer3.o(i.Tim3_M1_Run), (24 bytes).
    Removing timer3.o(i.Tim3_M1_Stop), (20 bytes).
    Removing timer3.o(i.Tim3_M23_BrakeInput_Config), (300 bytes).
    Removing timer3.o(i.Tim3_M23_CCR_Get), (96 bytes).
    Removing timer3.o(i.Tim3_M23_Cnt16Get), (16 bytes).
    Removing timer3.o(i.Tim3_M23_DT_Config), (56 bytes).
    Removing timer3.o(i.Tim3_M23_ETRInput_Config), (60 bytes).
    Removing timer3.o(i.Tim3_M23_EnDMA), (216 bytes).
    Removing timer3.o(i.Tim3_M23_EnSwBk), (24 bytes).
    Removing timer3.o(i.Tim3_M23_EnSwTrig), (24 bytes).
    Removing timer3.o(i.Tim3_M23_EnSwTrigCapCmpA), (76 bytes).
    Removing timer3.o(i.Tim3_M23_EnSwTrigCapCmpB), (76 bytes).
    Removing timer3.o(i.Tim3_M23_EnSwUev), (24 bytes).
    Removing timer3.o(i.Tim3_M23_GateFuncSel), (84 bytes).
    Removing timer3.o(i.Tim3_M23_MasterSlave_Set), (104 bytes).
    Removing timer3.o(i.Tim3_M23_OCRefClr), (60 bytes).
    Removing timer3.o(i.Tim3_M23_PortInput_Config), (544 bytes).
    Removing timer3.o(i.Tim3_M23_Stop), (20 bytes).
    Removing timer3.o(i.Tim3_M23_TrigADC_Config), (188 bytes).
    Removing timer3.o(i.Tim3_Mode0_DisableIrq), (24 bytes).
    Removing timer3.o(i.Tim3_Mode0_EnableIrq), (24 bytes).
    Removing timer3.o(i.Tim3_Mode0_Init), (184 bytes).
    Removing timer3.o(i.Tim3_Mode1_DisableIrq), (60 bytes).
    Removing timer3.o(i.Tim3_Mode1_EnableIrq), (64 bytes).
    Removing timer3.o(i.Tim3_Mode1_Init), (116 bytes).
    Removing timer3.o(i.Tim3_Mode23_DisableIrq), (188 bytes).
    Removing timer3.o(i.Tim3_Mode23_EnableIrq), (204 bytes).
    Removing trim.o(.rev16_text), (4 bytes).
    Removing trim.o(.revsh_text), (4 bytes).
    Removing trim.o(i.ClkTrim_IRQHandler), (24 bytes).
    Removing trim.o(i.Trim_CalCntGet), (12 bytes).
    Removing trim.o(i.Trim_ClearIntFlag), (112 bytes).
    Removing trim.o(i.Trim_DisableIrq), (24 bytes).
    Removing trim.o(i.Trim_EnableIrq), (24 bytes).
    Removing trim.o(i.Trim_GetIntFlag), (84 bytes).
    Removing trim.o(i.Trim_Init), (180 bytes).
    Removing trim.o(i.Trim_RefCntGet), (12 bytes).
    Removing trim.o(i.Trim_Run), (24 bytes).
    Removing trim.o(i.Trim_Stop), (20 bytes).
    Removing trim.o(.data), (4 bytes).
    Removing uart.o(.rev16_text), (4 bytes).
    Removing uart.o(.revsh_text), (4 bytes).
    Removing uart.o(i.Uart_CalScnt), (104 bytes).
    Removing uart.o(i.Uart_ClrIsr), (22 bytes).
    Removing uart.o(i.Uart_ClrStatus), (116 bytes).
    Removing uart.o(i.Uart_DisableFunc), (126 bytes).
    Removing uart.o(i.Uart_DisableIrq), (142 bytes).
    Removing uart.o(i.Uart_EnableFunc), (136 bytes).
    Removing uart.o(i.Uart_EnableIrq), (154 bytes).
    Removing uart.o(i.Uart_GetBaud), (142 bytes).
    Removing uart.o(i.Uart_GetIsr), (22 bytes).
    Removing uart.o(i.Uart_GetRb8), (32 bytes).
    Removing uart.o(i.Uart_GetStatus), (176 bytes).
    Removing uart.o(i.Uart_IRQHandler), (178 bytes).
    Removing uart.o(i.Uart_Init), (96 bytes).
    Removing uart.o(i.Uart_SendData), (92 bytes).
    Removing uart.o(i.Uart_SetBaud), (24 bytes).
    Removing uart.o(i.Uart_SetClkDiv), (44 bytes).
    Removing uart.o(i.Uart_SetMMDOrCk), (48 bytes).
    Removing uart.o(i.Uart_SetMode), (48 bytes).
    Removing uart.o(i.Uart_SetMultiMode), (72 bytes).
    Removing uart.o(i.Uart_SetSaddr), (32 bytes).
    Removing uart.o(i.Uart_SetSaddrEn), (32 bytes).
    Removing uart.o(i.Uart_SetStopBit), (70 bytes).
    Removing sysctrl.o(.rev16_text), (4 bytes).
    Removing sysctrl.o(.revsh_text), (4 bytes).
    Removing sysctrl.o(i.Sysctrl_ClkDeInit), (72 bytes).
    Removing sysctrl.o(i.Sysctrl_ClkInit), (106 bytes).
    Removing sysctrl.o(i.Sysctrl_ClkSourceEnable), (320 bytes).
    Removing sysctrl.o(i.Sysctrl_GetPeripheralGate), (20 bytes).
    Removing sysctrl.o(i.Sysctrl_SetFunc), (216 bytes).
    Removing sysctrl.o(i.Sysctrl_SetHCLKDiv), (44 bytes).
    Removing sysctrl.o(i.Sysctrl_SetPCLKDiv), (44 bytes).
    Removing sysctrl.o(i.Sysctrl_SetPLLFreq), (276 bytes).
    Removing sysctrl.o(i.Sysctrl_SetPLLStableTime), (36 bytes).
    Removing sysctrl.o(i.Sysctrl_SetRCLStableTime), (36 bytes).
    Removing sysctrl.o(i.Sysctrl_SetRCLTrim), (80 bytes).
    Removing sysctrl.o(i.Sysctrl_SetRTCAdjustClkFreq), (44 bytes).
    Removing sysctrl.o(i.Sysctrl_SetXTHFreq), (32 bytes).
    Removing sysctrl.o(i.Sysctrl_SetXTHStableTime), (32 bytes).
    Removing sysctrl.o(i.Sysctrl_SetXTLStableTime), (32 bytes).
    Removing sysctrl.o(i.Sysctrl_XTHDriverConfig), (28 bytes).
    Removing sysctrl.o(i.Sysctrl_XTLDriverConfig), (52 bytes).
    Removing dmac.o(.rev16_text), (4 bytes).
    Removing dmac.o(.revsh_text), (4 bytes).
    Removing dmac.o(i.Dma_ClrStat), (40 bytes).
    Removing dmac.o(i.Dma_Disable), (20 bytes).
    Removing dmac.o(i.Dma_DisableBcTcReload), (56 bytes).
    Removing dmac.o(i.Dma_DisableChannel), (52 bytes).
    Removing dmac.o(i.Dma_DisableChannelErrIrq), (56 bytes).
    Removing dmac.o(i.Dma_DisableChannelIrq), (56 bytes).
    Removing dmac.o(i.Dma_DisableContinusTranfer), (52 bytes).
    Removing dmac.o(i.Dma_DisableDestinationRload), (56 bytes).
    Removing dmac.o(i.Dma_DisableIrq), (50 bytes).
    Removing dmac.o(i.Dma_DisableSourceRload), (56 bytes).
    Removing dmac.o(i.Dma_EnableBcTcReload), (60 bytes).
    Removing dmac.o(i.Dma_EnableChannelErrIrq), (60 bytes).
    Removing dmac.o(i.Dma_EnableContinusTranfer), (56 bytes).
    Removing dmac.o(i.Dma_EnableDestinationRload), (60 bytes).
    Removing dmac.o(i.Dma_EnableIrq), (50 bytes).
    Removing dmac.o(i.Dma_EnableSourceRload), (60 bytes).
    Removing dmac.o(i.Dma_GetStat), (44 bytes).
    Removing dmac.o(i.Dma_HaltTranfer), (28 bytes).
    Removing dmac.o(i.Dma_PauseChannelTranfer), (60 bytes).
    Removing dmac.o(i.Dma_RecoverChannelTranfer), (56 bytes).
    Removing dmac.o(i.Dma_RecoverTranfer), (20 bytes).
    Removing dmac.o(i.Dma_SetBlockSize), (92 bytes).
    Removing dmac.o(i.Dma_SetChPriority), (48 bytes).
    Removing dmac.o(i.Dma_SetDestinationAddress), (44 bytes).
    Removing dmac.o(i.Dma_SetDestinationIncMode), (88 bytes).
    Removing dmac.o(i.Dma_SetSourceAddress), (44 bytes).
    Removing dmac.o(i.Dma_SetSourceIncMode), (88 bytes).
    Removing dmac.o(i.Dma_SetTransferCnt), (72 bytes).
    Removing dmac.o(i.Dma_SetTransferWidth), (92 bytes).
    Removing dmac.o(i.Dma_SetTriggerSel), (80 bytes).
    Removing dmac.o(i.Dma_Stop), (40 bytes).
    Removing dmac.o(i.Dma_SwTrigger), (40 bytes).
    Removing adt.o(.rev16_text), (4 bytes).
    Removing adt.o(.revsh_text), (4 bytes).
    Removing adt.o(i.AdtDisableNvic), (76 bytes).
    Removing adt.o(i.Adt_AosTrigConfig), (104 bytes).
    Removing adt.o(i.Adt_ClearBrakePort), (12 bytes).
    Removing adt.o(i.Adt_ClearCount), (32 bytes).
    Removing adt.o(i.Adt_ClearHwCaptureA), (32 bytes).
    Removing adt.o(i.Adt_ClearHwCaptureB), (32 bytes).
    Removing adt.o(i.Adt_ClearHwClear), (28 bytes).
    Removing adt.o(i.Adt_ClearHwCntDwn), (32 bytes).
    Removing adt.o(i.Adt_ClearHwCntUp), (32 bytes).
    Removing adt.o(i.Adt_ClearHwStart), (28 bytes).
    Removing adt.o(i.Adt_ClearHwStop), (28 bytes).
    Removing adt.o(i.Adt_ClearIrqFlag), (40 bytes).
    Removing adt.o(i.Adt_ClearPeriodBuf), (40 bytes).
    Removing adt.o(i.Adt_ClearPortBrakeFlag), (20 bytes).
    Removing adt.o(i.Adt_ClearSameBrakeFlag), (20 bytes).
    Removing adt.o(i.Adt_ClearValueBuf), (68 bytes).
    Removing adt.o(i.Adt_ConfigDT), (64 bytes).
    Removing adt.o(i.Adt_ConfigHwCaptureA), (56 bytes).
    Removing adt.o(i.Adt_ConfigHwCaptureB), (60 bytes).
    Removing adt.o(i.Adt_ConfigHwClear), (40 bytes).
    Removing adt.o(i.Adt_ConfigHwCntDwn), (44 bytes).
    Removing adt.o(i.Adt_ConfigHwCntUp), (44 bytes).
    Removing adt.o(i.Adt_ConfigHwStart), (40 bytes).
    Removing adt.o(i.Adt_ConfigHwStop), (40 bytes).
    Removing adt.o(i.Adt_ConfigIrq), (72 bytes).
    Removing adt.o(i.Adt_ConfigZMask), (96 bytes).
    Removing adt.o(i.Adt_DeInit), (72 bytes).
    Removing adt.o(i.Adt_Disable1Cfg), (156 bytes).
    Removing adt.o(i.Adt_Disable3Cfg), (128 bytes).
    Removing adt.o(i.Adt_DisableHwClear), (36 bytes).
    Removing adt.o(i.Adt_DisableHwStart), (36 bytes).
    Removing adt.o(i.Adt_DisableHwStop), (36 bytes).
    Removing adt.o(i.Adt_EnableBrakePort), (56 bytes).
    Removing adt.o(i.Adt_EnableHwClear), (36 bytes).
    Removing adt.o(i.Adt_EnableHwStart), (36 bytes).
    Removing adt.o(i.Adt_EnableHwStop), (36 bytes).
    Removing adt.o(i.Adt_EnableValueBuf), (76 bytes).
    Removing adt.o(i.Adt_GetCaptureBuf), (52 bytes).
    Removing adt.o(i.Adt_GetCaptureValue), (52 bytes).
    Removing adt.o(i.Adt_GetCntState), (136 bytes).
    Removing adt.o(i.Adt_GetCount), (32 bytes).
    Removing adt.o(i.Adt_GetIrqFlag), (44 bytes).
    Removing adt.o(i.Adt_GetPortBrakeFlag), (16 bytes).
    Removing adt.o(i.Adt_GetSameBrakeFlag), (16 bytes).
    Removing adt.o(i.Adt_GetSwSyncState), (84 bytes).
    Removing adt.o(i.Adt_IRQHandler), (440 bytes).
    Removing adt.o(i.Adt_IrqTrigConfig), (368 bytes).
    Removing adt.o(i.Adt_PortTrigConfig), (376 bytes).
    Removing adt.o(i.Adt_PwmDitherConfig), (108 bytes).
    Removing adt.o(i.Adt_SetCount), (40 bytes).
    Removing adt.o(i.Adt_SetDTDA), (28 bytes).
    Removing adt.o(i.Adt_SetDTUA), (28 bytes).
    Removing adt.o(i.Adt_SetPeriodBuf), (44 bytes).
    Removing adt.o(i.Adt_SetSpecilCompareValue), (68 bytes).
    Removing adt.o(i.Adt_SetValidPeriod), (148 bytes).
    Removing adt.o(i.Adt_StopCount), (32 bytes).
    Removing adt.o(i.Adt_SwSyncClear), (56 bytes).
    Removing adt.o(i.Adt_SwSyncStart), (56 bytes).
    Removing adt.o(i.Adt_SwSyncStop), (56 bytes).
    Removing lpm.o(.rev16_text), (4 bytes).
    Removing lpm.o(.revsh_text), (4 bytes).
    Removing lpm.o(i.Lpm_Config), (96 bytes).
    Removing lpm.o(i.Lpm_GotoLpmMode), (4 bytes).
    Removing lpuart.o(.rev16_text), (4 bytes).
    Removing lpuart.o(.revsh_text), (4 bytes).
    Removing lpuart.o(i.LPUart_ClrIsr), (28 bytes).
    Removing lpuart.o(i.LPUart_DisableFunc), (126 bytes).
    Removing lpuart.o(i.LPUart_DisableIrq), (142 bytes).
    Removing lpuart.o(i.LPUart_GetBaud), (134 bytes).
    Removing lpuart.o(i.LPUart_GetIsr), (22 bytes).
    Removing lpuart.o(i.LPUart_GetRb8), (32 bytes).
    Removing lpuart.o(i.LPUart_GetSclk), (80 bytes).
    Removing lpuart.o(i.LPUart_GetStatus), (176 bytes).
    Removing lpuart.o(i.LPUart_ReceiveData), (30 bytes).
    Removing lpuart.o(i.LPUart_SendData), (96 bytes).
    Removing lpuart.o(i.LPUart_SetSaddr), (32 bytes).
    Removing lpuart.o(i.LPUart_SetSaddrEn), (32 bytes).
    Removing lpuart.o(i.LpUart_IRQHandler), (178 bytes).

462 unused section(s) (total 28921 bytes) removed from the image.

==============================================================================

Image Symbol Table

    Local Symbols

    Symbol Name                              Value     Ov Type        Size  Object(Section)

    RESET                                    0x00000000   Section      192  startup_hc32l136.o(RESET)
    ../clib/../cmprslib/zerorunl2.c          0x00000000   Number         0  __dczerorl2.o ABSOLUTE
    ../clib/microlib/division.c              0x00000000   Number         0  uidiv.o ABSOLUTE
    ../clib/microlib/division.c              0x00000000   Number         0  idiv.o ABSOLUTE
    ../clib/microlib/init/entry.s            0x00000000   Number         0  entry8b.o ABSOLUTE
    ../clib/microlib/init/entry.s            0x00000000   Number         0  entry7b.o ABSOLUTE
    ../clib/microlib/init/entry.s            0x00000000   Number         0  entry11a.o ABSOLUTE
    ../clib/microlib/init/entry.s            0x00000000   Number         0  entry7a.o ABSOLUTE
    ../clib/microlib/init/entry.s            0x00000000   Number         0  entry9b.o ABSOLUTE
    ../clib/microlib/init/entry.s            0x00000000   Number         0  entry10b.o ABSOLUTE
    ../clib/microlib/init/entry.s            0x00000000   Number         0  entry.o ABSOLUTE
    ../clib/microlib/init/entry.s            0x00000000   Number         0  entry10a.o ABSOLUTE
    ../clib/microlib/init/entry.s            0x00000000   Number         0  entry11b.o ABSOLUTE
    ../clib/microlib/init/entry.s            0x00000000   Number         0  entry5.o ABSOLUTE
    ../clib/microlib/init/entry.s            0x00000000   Number         0  entry9a.o ABSOLUTE
    ../clib/microlib/init/entry.s            0x00000000   Number         0  entry2.o ABSOLUTE
    ../clib/microlib/init/entry.s            0x00000000   Number         0  entry8a.o ABSOLUTE
    ../clib/microlib/string/memcpy.c         0x00000000   Number         0  memcpya.o ABSOLUTE
    ../clib/microlib/string/memcpy.c         0x00000000   Number         0  memcpyb.o ABSOLUTE
    ../clib/microlib/string/memset.c         0x00000000   Number         0  memseta.o ABSOLUTE
    ../clib/microlib/stubs.s                 0x00000000   Number         0  iusefp.o ABSOLUTE
    ../clib/microlib/stubs.s                 0x00000000   Number         0  useno.o ABSOLUTE
    ../fplib/microlib/fpadd.c                0x00000000   Number         0  fadd.o ABSOLUTE
    ../fplib/microlib/fpdiv.c                0x00000000   Number         0  fdiv.o ABSOLUTE
    ../fplib/microlib/fpepilogue.c           0x00000000   Number         0  fepilogue.o ABSOLUTE
    ../fplib/microlib/fpfix.c                0x00000000   Number         0  ffixui.o ABSOLUTE
    ../fplib/microlib/fpflt.c                0x00000000   Number         0  ffltui.o ABSOLUTE
    ../fplib/microlib/fpmul.c                0x00000000   Number         0  fmul.o ABSOLUTE
    Library\Start\startup_hc32l136.s         0x00000000   Number         0  startup_hc32l136.o ABSOLUTE
    Library\\common\\system_hc32l136.c       0x00000000   Number         0  system_hc32l136.o ABSOLUTE
    Library\\driver\\src\\adc.c              0x00000000   Number         0  adc.o ABSOLUTE
    Library\\driver\\src\\adt.c              0x00000000   Number         0  adt.o ABSOLUTE
    Library\\driver\\src\\bt.c               0x00000000   Number         0  bt.o ABSOLUTE
    Library\\driver\\src\\ddl.c              0x00000000   Number         0  ddl.o ABSOLUTE
    Library\\driver\\src\\dmac.c             0x00000000   Number         0  dmac.o ABSOLUTE
    Library\\driver\\src\\flash.c            0x00000000   Number         0  flash.o ABSOLUTE
    Library\\driver\\src\\gpio.c             0x00000000   Number         0  gpio.o ABSOLUTE
    Library\\driver\\src\\interrupts_hc32l136.c 0x00000000   Number         0  interrupts_hc32l136.o ABSOLUTE
    Library\\driver\\src\\lpm.c              0x00000000   Number         0  lpm.o ABSOLUTE
    Library\\driver\\src\\lpuart.c           0x00000000   Number         0  lpuart.o ABSOLUTE
    Library\\driver\\src\\sysctrl.c          0x00000000   Number         0  sysctrl.o ABSOLUTE
    Library\\driver\\src\\timer3.c           0x00000000   Number         0  timer3.o ABSOLUTE
    Library\\driver\\src\\trim.c             0x00000000   Number         0  trim.o ABSOLUTE
    Library\\driver\\src\\uart.c             0x00000000   Number         0  uart.o ABSOLUTE
    Library\common\system_hc32l136.c         0x00000000   Number         0  system_hc32l136.o ABSOLUTE
    Library\driver\src\adc.c                 0x00000000   Number         0  adc.o ABSOLUTE
    Library\driver\src\adt.c                 0x00000000   Number         0  adt.o ABSOLUTE
    Library\driver\src\bt.c                  0x00000000   Number         0  bt.o ABSOLUTE
    Library\driver\src\ddl.c                 0x00000000   Number         0  ddl.o ABSOLUTE
    Library\driver\src\dmac.c                0x00000000   Number         0  dmac.o ABSOLUTE
    Library\driver\src\flash.c               0x00000000   Number         0  flash.o ABSOLUTE
    Library\driver\src\gpio.c                0x00000000   Number         0  gpio.o ABSOLUTE
    Library\driver\src\interrupts_hc32l136.c 0x00000000   Number         0  interrupts_hc32l136.o ABSOLUTE
    Library\driver\src\lpm.c                 0x00000000   Number         0  lpm.o ABSOLUTE
    Library\driver\src\lpuart.c              0x00000000   Number         0  lpuart.o ABSOLUTE
    Library\driver\src\sysctrl.c             0x00000000   Number         0  sysctrl.o ABSOLUTE
    Library\driver\src\timer3.c              0x00000000   Number         0  timer3.o ABSOLUTE
    Library\driver\src\trim.c                0x00000000   Number         0  trim.o ABSOLUTE
    Library\driver\src\uart.c                0x00000000   Number         0  uart.o ABSOLUTE
    User\AdcSample.c                         0x00000000   Number         0  adcsample.o ABSOLUTE
    User\EMS.c                               0x00000000   Number         0  ems.o ABSOLUTE
    User\EMS_Port.c                          0x00000000   Number         0  ems_port.o ABSOLUTE
    User\Flash_Handler.c                     0x00000000   Number         0  flash_handler.o ABSOLUTE
    User\HC595.c                             0x00000000   Number         0  hc595.o ABSOLUTE
    User\IIC.c                               0x00000000   Number         0  iic.o ABSOLUTE
    User\Key.c                               0x00000000   Number         0  key.o ABSOLUTE
    User\LedMotor.c                          0x00000000   Number         0  ledmotor.o ABSOLUTE
    User\NTCTempSample.c                     0x00000000   Number         0  ntctempsample.o ABSOLUTE
    User\TimeHandler.c                       0x00000000   Number         0  timehandler.o ABSOLUTE
    User\UartHandler.c                       0x00000000   Number         0  uarthandler.o ABSOLUTE
    User\\AdcSample.c                        0x00000000   Number         0  adcsample.o ABSOLUTE
    User\\EMS_Port.c                         0x00000000   Number         0  ems_port.o ABSOLUTE
    User\\Flash_Handler.c                    0x00000000   Number         0  flash_handler.o ABSOLUTE
    User\\HC595.c                            0x00000000   Number         0  hc595.o ABSOLUTE
    User\\IIC.c                              0x00000000   Number         0  iic.o ABSOLUTE
    User\\Key.c                              0x00000000   Number         0  key.o ABSOLUTE
    User\\LedMotor.c                         0x00000000   Number         0  ledmotor.o ABSOLUTE
    User\\TimeHandler.c                      0x00000000   Number         0  timehandler.o ABSOLUTE
    User\\UartHandler.c                      0x00000000   Number         0  uarthandler.o ABSOLUTE
    User\\main.c                             0x00000000   Number         0  main.o ABSOLUTE
    User\main.c                              0x00000000   Number         0  main.o ABSOLUTE
    User\util.c                              0x00000000   Number         0  util.o ABSOLUTE
    cfcmple.s                                0x00000000   Number         0  cfcmple.o ABSOLUTE
    cfrcmple.s                               0x00000000   Number         0  cfrcmple.o ABSOLUTE
    dc.s                                     0x00000000   Number         0  dc.o ABSOLUTE
    handlers.s                               0x00000000   Number         0  handlers.o ABSOLUTE
    init.s                                   0x00000000   Number         0  init.o ABSOLUTE
    .ARM.Collect$$$$00000000                 0x000000c0   Section        0  entry.o(.ARM.Collect$$$$00000000)
    .ARM.Collect$$$$00000001                 0x000000c0   Section        4  entry2.o(.ARM.Collect$$$$00000001)
    .ARM.Collect$$$$00000004                 0x000000c4   Section        4  entry5.o(.ARM.Collect$$$$00000004)
    .ARM.Collect$$$$00000008                 0x000000c8   Section        0  entry7b.o(.ARM.Collect$$$$00000008)
    .ARM.Collect$$$$0000000A                 0x000000c8   Section        0  entry8b.o(.ARM.Collect$$$$0000000A)
    .ARM.Collect$$$$0000000B                 0x000000c8   Section        8  entry9a.o(.ARM.Collect$$$$0000000B)
    .ARM.Collect$$$$0000000D                 0x000000d0   Section        0  entry10a.o(.ARM.Collect$$$$0000000D)
    .ARM.Collect$$$$0000000F                 0x000000d0   Section        0  entry11a.o(.ARM.Collect$$$$0000000F)
    .ARM.Collect$$$$00002712                 0x000000d0   Section        4  entry2.o(.ARM.Collect$$$$00002712)
    __lit__00000000                          0x000000d0   Data           4  entry2.o(.ARM.Collect$$$$00002712)
    .text                                    0x000000d4   Section       60  startup_hc32l136.o(.text)
    .text                                    0x00000110   Section        0  uidiv.o(.text)
    .text                                    0x0000013c   Section        0  idiv.o(.text)
    .text                                    0x00000164   Section        0  memcpya.o(.text)
    .text                                    0x00000188   Section        0  fadd.o(.text)
    .text                                    0x0000023a   Section        0  fmul.o(.text)
    .text                                    0x000002b4   Section        0  fdiv.o(.text)
    .text                                    0x00000330   Section        0  ffltui.o(.text)
    .text                                    0x0000033e   Section        0  ffixui.o(.text)
    .text                                    0x00000368   Section       20  cfcmple.o(.text)
    .text                                    0x0000037c   Section       20  cfrcmple.o(.text)
    .text                                    0x00000390   Section        0  iusefp.o(.text)
    .text                                    0x00000390   Section        0  fepilogue.o(.text)
    .text                                    0x00000414   Section       36  init.o(.text)
    .text                                    0x00000438   Section        0  __dczerorl2.o(.text)
    i.AdcSampleInit                          0x00000490   Section        0  adcsample.o(i.AdcSampleInit)
    i.AdcSampleTask                          0x00000614   Section        0  main.o(i.AdcSampleTask)
    AdcSampleTask                            0x00000615   Thumb Code   248  main.o(i.AdcSampleTask)
    i.Adc_ConfigDmaTrig                      0x00000734   Section        0  adc.o(i.Adc_ConfigDmaTrig)
    i.Adc_ConfigSqrChannel                   0x00000764   Section        0  adc.o(i.Adc_ConfigSqrChannel)
    i.Adc_ConfigSqrMode                      0x0000091c   Section        0  adc.o(i.Adc_ConfigSqrMode)
    i.Adc_Enable                             0x0000099c   Section        0  adc.o(i.Adc_Enable)
    i.Adc_Init                               0x000009b0   Section        0  adc.o(i.Adc_Init)
    i.Adc_SQR_Start                          0x00000a40   Section        0  adc.o(i.Adc_SQR_Start)
    i.Adc_SetVref                            0x00000a54   Section        0  adc.o(i.Adc_SetVref)
    i.AdtEnableNvic                          0x00000aa8   Section        0  adt.o(i.AdtEnableNvic)
    AdtEnableNvic                            0x00000aa9   Thumb Code    40  adt.o(i.AdtEnableNvic)
    i.Adt_CHxXPortConfig                     0x00000ad4   Section        0  adt.o(i.Adt_CHxXPortConfig)
    i.Adt_Init                               0x00000cac   Section        0  adt.o(i.Adt_Init)
    i.Adt_SetCompareValue                    0x00000d34   Section        0  adt.o(i.Adt_SetCompareValue)
    i.Adt_SetPeriod                          0x00000d74   Section        0  adt.o(i.Adt_SetPeriod)
    i.Adt_StartCount                         0x00000d90   Section        0  adt.o(i.Adt_StartCount)
    i.Battery_Chg_Compl_Status_Check         0x00000db4   Section        0  key.o(i.Battery_Chg_Compl_Status_Check)
    i.Battery_Chg_Compl_Status_Init          0x00000df4   Section        0  key.o(i.Battery_Chg_Compl_Status_Init)
    i.Battery_Chg_Status_Disable_IRQ         0x00000e1a   Section        0  key.o(i.Battery_Chg_Status_Disable_IRQ)
    Battery_Chg_Status_Disable_IRQ           0x00000e1b   Thumb Code    14  key.o(i.Battery_Chg_Status_Disable_IRQ)
    i.Battery_Chg_Status_Pin_Init            0x00000e28   Section        0  key.o(i.Battery_Chg_Status_Pin_Init)
    i.Battery_Chg_Status_Pin_Scan            0x00000e50   Section        0  key.o(i.Battery_Chg_Status_Pin_Scan)
    i.Battery_Status_Check                   0x00000ee4   Section        0  main.o(i.Battery_Status_Check)
    Battery_Status_Check                     0x00000ee5   Thumb Code    84  main.o(i.Battery_Status_Check)
    i.BoostVoltageControl                    0x00000f50   Section        0  ems.o(i.BoostVoltageControl)
    BoostVoltageControl                      0x00000f51   Thumb Code   476  ems.o(i.BoostVoltageControl)
    i.Boost_Pwm                              0x00001134   Section        0  timehandler.o(i.Boost_Pwm)
    i.Boost_Start                            0x0000114e   Section        0  timehandler.o(i.Boost_Start)
    i.Bt_ClearAllIntFlag                     0x00001158   Section        0  bt.o(i.Bt_ClearAllIntFlag)
    i.Bt_ClearIntFlag                        0x000011a4   Section        0  bt.o(i.Bt_ClearIntFlag)
    i.Bt_GetIntFlag                          0x000011c0   Section        0  bt.o(i.Bt_GetIntFlag)
    i.Bt_M23_ARRSet                          0x000011dc   Section        0  bt.o(i.Bt_M23_ARRSet)
    i.Bt_M23_Cnt16Set                        0x0000120c   Section        0  bt.o(i.Bt_M23_Cnt16Set)
    i.Bt_M23_EnPWM_Output                    0x0000122c   Section        0  bt.o(i.Bt_M23_EnPWM_Output)
    i.Bt_M23_Run                             0x00001264   Section        0  bt.o(i.Bt_M23_Run)
    i.Bt_M23_SetValidPeriod                  0x00001280   Section        0  bt.o(i.Bt_M23_SetValidPeriod)
    i.Bt_Mode23_EnableIrq                    0x000012a0   Section        0  bt.o(i.Bt_Mode23_EnableIrq)
    i.Bt_Mode23_Init                         0x0000131c   Section        0  bt.o(i.Bt_Mode23_Init)
    i.ClkInit24M                             0x00001588   Section        0  main.o(i.ClkInit24M)
    ClkInit24M                               0x00001589   Thumb Code    70  main.o(i.ClkInit24M)
    i.CompareParaSize                        0x000015ce   Section        0  util.o(i.CompareParaSize)
    i.CtsIntCallBack                         0x000015f8   Section        0  uarthandler.o(i.CtsIntCallBack)
    i.Delay_us                               0x000015fa   Section        0  adcsample.o(i.Delay_us)
    i.DeviceDataInit                         0x00001620   Section        0  main.o(i.DeviceDataInit)
    DeviceDataInit                           0x00001621   Thumb Code    44  main.o(i.DeviceDataInit)
    i.DmaContIrqCallback                     0x00001654   Section        0  adcsample.o(i.DmaContIrqCallback)
    i.Dma_ConfigIrq                          0x00001660   Section        0  dmac.o(i.Dma_ConfigIrq)
    i.Dma_Enable                             0x000016cc   Section        0  dmac.o(i.Dma_Enable)
    i.Dma_EnableChannel                      0x000016e4   Section        0  dmac.o(i.Dma_EnableChannel)
    i.Dma_EnableChannelIrq                   0x00001724   Section        0  dmac.o(i.Dma_EnableChannelIrq)
    i.Dma_IRQHandler                         0x00001760   Section        0  dmac.o(i.Dma_IRQHandler)
    i.Dma_InitChannel                        0x00001858   Section        0  dmac.o(i.Dma_InitChannel)
    i.Dma_Start                              0x00001af0   Section        0  dmac.o(i.Dma_Start)
    i.EMSControlHandler                      0x00001b1c   Section        0  ems.o(i.EMSControlHandler)
    i.EMSTimeInit                            0x00001f08   Section        0  main.o(i.EMSTimeInit)
    EMSTimeInit                              0x00001f09   Thumb Code    16  main.o(i.EMSTimeInit)
    i.EMS_Port_Check_Pin_Init                0x00001f18   Section        0  key.o(i.EMS_Port_Check_Pin_Init)
    i.EMS_Port_Init                          0x00001f58   Section        0  ems_port.o(i.EMS_Port_Init)
    i.EMS_Port_Pin_Status                    0x0000200c   Section        0  key.o(i.EMS_Port_Pin_Status)
    i.EMS_PwmControl                         0x00002094   Section        0  ems.o(i.EMS_PwmControl)
    i.EMS_Status_Check                       0x000020d4   Section        0  main.o(i.EMS_Status_Check)
    EMS_Status_Check                         0x000020d5   Thumb Code     8  main.o(i.EMS_Status_Check)
    i.EmsABAuto_And_CDAuto_PN                0x000020dc   Section        0  ems_port.o(i.EmsABAuto_And_CDAuto_PN)
    i.EmsABC_T_D_PN                          0x00002354   Section        0  ems_port.o(i.EmsABC_T_D_PN)
    i.EmsABD_T_C_PN                          0x000025cc   Section        0  ems_port.o(i.EmsABD_T_C_PN)
    i.EmsACAutO_And_BDAuto_PN                0x00002844   Section        0  ems_port.o(i.EmsACAutO_And_BDAuto_PN)
    i.EmsACD_T_B_PN                          0x00002abc   Section        0  ems_port.o(i.EmsACD_T_B_PN)
    i.EmsADAuto_And_BCAuto_PN                0x00002d34   Section        0  ems_port.o(i.EmsADAuto_And_BCAuto_PN)
    i.EmsA_T_B_And_CDAuto_PN                 0x00002fac   Section        0  ems_port.o(i.EmsA_T_B_And_CDAuto_PN)
    i.EmsA_T_B_And_C_T_D                     0x000031a4   Section        0  ems_port.o(i.EmsA_T_B_And_C_T_D)
    i.EmsA_T_B_And_D_T_C                     0x000031f0   Section        0  ems_port.o(i.EmsA_T_B_And_D_T_C)
    i.EmsA_T_C_And_BDAuto_PN                 0x0000323c   Section        0  ems_port.o(i.EmsA_T_C_And_BDAuto_PN)
    i.EmsA_T_C_And_BD_No_PN                  0x00003434   Section        0  ems_port.o(i.EmsA_T_C_And_BD_No_PN)
    i.EmsA_T_C_And_B_T_D                     0x000035aa   Section        0  ems_port.o(i.EmsA_T_C_And_B_T_D)
    i.EmsA_T_C_And_D_T_B                     0x000035f6   Section        0  ems_port.o(i.EmsA_T_C_And_D_T_B)
    i.EmsA_T_D_And_BCAuto_PN                 0x00003642   Section        0  ems_port.o(i.EmsA_T_D_And_BCAuto_PN)
    i.EmsA_T_D_And_BC_No_PN                  0x0000383a   Section        0  ems_port.o(i.EmsA_T_D_And_BC_No_PN)
    i.EmsA_T_D_And_B_T_C                     0x000039b2   Section        0  ems_port.o(i.EmsA_T_D_And_B_T_C)
    i.EmsA_T_D_And_C_T_B                     0x000039fe   Section        0  ems_port.o(i.EmsA_T_D_And_C_T_B)
    i.EmsBCD_T_A_PN                          0x00003a4a   Section        0  ems_port.o(i.EmsBCD_T_A_PN)
    i.EmsB_T_A_And_CDAuto_PN                 0x00003cc2   Section        0  ems_port.o(i.EmsB_T_A_And_CDAuto_PN)
    i.EmsB_T_A_And_CD_No_PN                  0x00003eba   Section        0  ems_port.o(i.EmsB_T_A_And_CD_No_PN)
    i.EmsB_T_A_And_C_T_D                     0x00004032   Section        0  ems_port.o(i.EmsB_T_A_And_C_T_D)
    i.EmsB_T_A_And_D_T_C                     0x0000407e   Section        0  ems_port.o(i.EmsB_T_A_And_D_T_C)
    i.EmsB_T_C_And_ADAuto_PN                 0x000040ca   Section        0  ems_port.o(i.EmsB_T_C_And_ADAuto_PN)
    i.EmsB_T_C_And_AD_No_PN                  0x000042c0   Section        0  ems_port.o(i.EmsB_T_C_And_AD_No_PN)
    i.EmsB_T_C_And_A_T_D                     0x00004438   Section        0  ems_port.o(i.EmsB_T_C_And_A_T_D)
    i.EmsB_T_C_And_D_T_A                     0x00004484   Section        0  ems_port.o(i.EmsB_T_C_And_D_T_A)
    i.EmsB_T_D_And_ACAuto_PN                 0x000044d0   Section        0  ems_port.o(i.EmsB_T_D_And_ACAuto_PN)
    i.EmsB_T_D_And_AC_No_PN                  0x0000464a   Section        0  ems_port.o(i.EmsB_T_D_And_AC_No_PN)
    i.EmsB_T_D_And_A_T_C                     0x000047c0   Section        0  ems_port.o(i.EmsB_T_D_And_A_T_C)
    i.EmsB_T_D_And_C_T_A                     0x0000480c   Section        0  ems_port.o(i.EmsB_T_D_And_C_T_A)
    i.EmsC_T_A_And_BDAuto_PN                 0x00004858   Section        0  ems_port.o(i.EmsC_T_A_And_BDAuto_PN)
    i.EmsC_T_A_And_BD_No                     0x00004a50   Section        0  ems_port.o(i.EmsC_T_A_And_BD_No)
    i.EmsC_T_A_And_BD_No_PN                  0x00004a7c   Section        0  ems_port.o(i.EmsC_T_A_And_BD_No_PN)
    i.EmsC_T_A_And_B_T_D                     0x00004bf4   Section        0  ems_port.o(i.EmsC_T_A_And_B_T_D)
    i.EmsC_T_A_And_D_T_B                     0x00004c40   Section        0  ems_port.o(i.EmsC_T_A_And_D_T_B)
    i.EmsC_T_B_And_ADAuto_PN                 0x00004c8c   Section        0  ems_port.o(i.EmsC_T_B_And_ADAuto_PN)
    i.EmsC_T_B_And_AD_No                     0x00004e84   Section        0  ems_port.o(i.EmsC_T_B_And_AD_No)
    i.EmsC_T_B_And_AD_No_PN                  0x00004eb0   Section        0  ems_port.o(i.EmsC_T_B_And_AD_No_PN)
    i.EmsC_T_B_And_A_T_D                     0x00005028   Section        0  ems_port.o(i.EmsC_T_B_And_A_T_D)
    i.EmsC_T_B_And_D_T_A                     0x00005074   Section        0  ems_port.o(i.EmsC_T_B_And_D_T_A)
    i.EmsC_T_D_And_ABAuto_PN                 0x000050c0   Section        0  ems_port.o(i.EmsC_T_D_And_ABAuto_PN)
    i.EmsC_T_D_And_AB_No                     0x000052b8   Section        0  ems_port.o(i.EmsC_T_D_And_AB_No)
    i.EmsC_T_D_And_AB_No_PN                  0x000052e4   Section        0  ems_port.o(i.EmsC_T_D_And_AB_No_PN)
    i.EmsC_T_D_And_A_T_B                     0x0000545c   Section        0  ems_port.o(i.EmsC_T_D_And_A_T_B)
    i.EmsC_T_D_And_B_T_A                     0x000054a8   Section        0  ems_port.o(i.EmsC_T_D_And_B_T_A)
    i.EmsD_T_A_And_BC_AutO_PN                0x000054f4   Section        0  ems_port.o(i.EmsD_T_A_And_BC_AutO_PN)
    i.EmsD_T_A_And_BC_No_PN                  0x000056ec   Section        0  ems_port.o(i.EmsD_T_A_And_BC_No_PN)
    i.EmsD_T_A_And_B_T_C                     0x00005864   Section        0  ems_port.o(i.EmsD_T_A_And_B_T_C)
    i.EmsD_T_A_And_C_T_B                     0x000058b0   Section        0  ems_port.o(i.EmsD_T_A_And_C_T_B)
    i.EmsD_T_B_And_AC_No_PN                  0x000058fc   Section        0  ems_port.o(i.EmsD_T_B_And_AC_No_PN)
    i.EmsD_T_C_And_AB_No_PN                  0x00005a74   Section        0  ems_port.o(i.EmsD_T_C_And_AB_No_PN)
    i.Ems_2DParaInit                         0x00005bec   Section        0  ems.o(i.Ems_2DParaInit)
    Ems_2DParaInit                           0x00005bed   Thumb Code    94  ems.o(i.Ems_2DParaInit)
    i.Ems_3DParaInit                         0x00005c58   Section        0  ems.o(i.Ems_3DParaInit)
    Ems_3DParaInit                           0x00005c59   Thumb Code    94  ems.o(i.Ems_3DParaInit)
    i.Ems_AB_And_CD_Discharge                0x00005cc4   Section        0  ems_port.o(i.Ems_AB_And_CD_Discharge)
    i.Ems_AB_And_CD_Four                     0x00005d50   Section        0  ems_port.o(i.Ems_AB_And_CD_Four)
    i.Ems_AToB_And_Ems_CToD_PNAlter_N        0x00005ddc   Section        0  ems_port.o(i.Ems_AToB_And_Ems_CToD_PNAlter_N)
    i.Ems_AToB_And_Ems_CToD_PNAlter_P        0x00005e74   Section        0  ems_port.o(i.Ems_AToB_And_Ems_CToD_PNAlter_P)
    i.Ems_AToB_Ems_CToD_FS_N                 0x00005f0c   Section        0  ems_port.o(i.Ems_AToB_Ems_CToD_FS_N)
    i.Ems_AToB_Ems_CToD_FS_P                 0x00005f58   Section        0  ems_port.o(i.Ems_AToB_Ems_CToD_FS_P)
    i.Ems_A_T_B_And_CD_No_PN                 0x00005fa4   Section        0  ems_port.o(i.Ems_A_T_B_And_CD_No_PN)
    i.Ems_A_To_Ems_B_Double                  0x00006118   Section        0  ems_port.o(i.Ems_A_To_Ems_B_Double)
    i.Ems_A_To_Ems_B_FS_N                    0x00006164   Section        0  ems_port.o(i.Ems_A_To_Ems_B_FS_N)
    i.Ems_A_To_Ems_B_FS_P                    0x00006190   Section        0  ems_port.o(i.Ems_A_To_Ems_B_FS_P)
    i.Ems_A_To_Ems_B_PNAlter_N               0x000061bc   Section        0  ems_port.o(i.Ems_A_To_Ems_B_PNAlter_N)
    i.Ems_A_To_Ems_B_PNAlter_P               0x00006214   Section        0  ems_port.o(i.Ems_A_To_Ems_B_PNAlter_P)
    i.Ems_A_To_Ems_B_Single_N                0x0000626c   Section        0  ems_port.o(i.Ems_A_To_Ems_B_Single_N)
    i.Ems_A_To_Ems_B_Single_P                0x00006298   Section        0  ems_port.o(i.Ems_A_To_Ems_B_Single_P)
    i.Ems_CallTask                           0x000062c4   Section        0  main.o(i.Ems_CallTask)
    Ems_CallTask                             0x000062c5   Thumb Code    22  main.o(i.Ems_CallTask)
    i.Ems_Control_F                          0x000062e0   Section        0  main.o(i.Ems_Control_F)
    Ems_Control_F                            0x000062e1   Thumb Code   510  main.o(i.Ems_Control_F)
    i.Ems_IDLEParaInit                       0x00006500   Section        0  ems.o(i.Ems_IDLEParaInit)
    Ems_IDLEParaInit                         0x00006501   Thumb Code    90  ems.o(i.Ems_IDLEParaInit)
    i.Ems_Massage_Mode_update                0x00006568   Section        0  main.o(i.Ems_Massage_Mode_update)
    Ems_Massage_Mode_update                  0x00006569   Thumb Code    46  main.o(i.Ems_Massage_Mode_update)
    i.Ems_Output_Close                       0x0000659c   Section        0  ems.o(i.Ems_Output_Close)
    i.Ems_ParaInit                           0x000065b0   Section        0  ems.o(i.Ems_ParaInit)
    i.Ems_Start                              0x000065f0   Section        0  ems.o(i.Ems_Start)
    i.EnableNvic                             0x000065fc   Section        0  interrupts_hc32l136.o(i.EnableNvic)
    i.ErrIntCallback                         0x0000667c   Section        0  uarthandler.o(i.ErrIntCallback)
    i.ExtTrigInterrupteRouseDisable          0x0000667e   Section        0  key.o(i.ExtTrigInterrupteRouseDisable)
    i.ExternBoardCheckHandler                0x00006690   Section        0  main.o(i.ExternBoardCheckHandler)
    ExternBoardCheckHandler                  0x00006691   Thumb Code   134  main.o(i.ExternBoardCheckHandler)
    i.Flash_WaitCycle                        0x0000672c   Section        0  flash.o(i.Flash_WaitCycle)
    i.Gpio_ClearIrq                          0x00006794   Section        0  gpio.o(i.Gpio_ClearIrq)
    i.Gpio_ClrIO                             0x000067b0   Section        0  gpio.o(i.Gpio_ClrIO)
    i.Gpio_DisableIrq                        0x000067cc   Section        0  gpio.o(i.Gpio_DisableIrq)
    i.Gpio_EnableIrq                         0x000067e4   Section        0  gpio.o(i.Gpio_EnableIrq)
    i.Gpio_GetInputIO                        0x000067fc   Section        0  gpio.o(i.Gpio_GetInputIO)
    i.Gpio_GetIrqStatus                      0x00006810   Section        0  gpio.o(i.Gpio_GetIrqStatus)
    i.Gpio_IRQHandler                        0x00006824   Section        0  key.o(i.Gpio_IRQHandler)
    i.Gpio_Init                              0x000068ac   Section        0  gpio.o(i.Gpio_Init)
    i.Gpio_SetAfMode                         0x000069f8   Section        0  gpio.o(i.Gpio_SetAfMode)
    i.Gpio_SetAnalogMode                     0x00006a0c   Section        0  gpio.o(i.Gpio_SetAnalogMode)
    i.Gpio_SetIO                             0x00006a28   Section        0  gpio.o(i.Gpio_SetIO)
    i.HallSwitchStatusScan                   0x00006a44   Section        0  key.o(i.HallSwitchStatusScan)
    i.HallSwitchTrigTouchKeyInit             0x00006b00   Section        0  key.o(i.HallSwitchTrigTouchKeyInit)
    i.HallSwitchTrigTouchKeyInitDisable      0x00006b28   Section        0  key.o(i.HallSwitchTrigTouchKeyInitDisable)
    HallSwitchTrigTouchKeyInitDisable        0x00006b29   Thumb Code    14  key.o(i.HallSwitchTrigTouchKeyInitDisable)
    i.HardFault_Handler                      0x00006b36   Section        0  interrupts_hc32l136.o(i.HardFault_Handler)
    i.HardWareInit                           0x00006b46   Section        0  main.o(i.HardWareInit)
    HardWareInit                             0x00006b47   Thumb Code    60  main.o(i.HardWareInit)
    i.Heat_Temperature_Close                 0x00006b82   Section        0  main.o(i.Heat_Temperature_Close)
    Heat_Temperature_Close                   0x00006b83   Thumb Code    12  main.o(i.Heat_Temperature_Close)
    i.Heat_temperature_Control               0x00006b90   Section        0  main.o(i.Heat_temperature_Control)
    Heat_temperature_Control                 0x00006b91   Thumb Code    74  main.o(i.Heat_temperature_Control)
    i.Heater_Init                            0x00006bec   Section        0  ledmotor.o(i.Heater_Init)
    i.IRQ000_Handler                         0x00006c22   Section        0  interrupts_hc32l136.o(i.IRQ000_Handler)
    i.IRQ001_Handler                         0x00006c2c   Section        0  interrupts_hc32l136.o(i.IRQ001_Handler)
    i.IRQ002_Handler                         0x00006c36   Section        0  interrupts_hc32l136.o(i.IRQ002_Handler)
    i.IRQ003_Handler                         0x00006c40   Section        0  interrupts_hc32l136.o(i.IRQ003_Handler)
    i.IRQ004_Handler                         0x00006c4a   Section        0  interrupts_hc32l136.o(i.IRQ004_Handler)
    i.IRQ005_Handler                         0x00006c54   Section        0  interrupts_hc32l136.o(i.IRQ005_Handler)
    i.IRQ006_Handler                         0x00006c5e   Section        0  interrupts_hc32l136.o(i.IRQ006_Handler)
    i.IRQ007_Handler                         0x00006c68   Section        0  interrupts_hc32l136.o(i.IRQ007_Handler)
    i.IRQ008_Handler                         0x00006c72   Section        0  interrupts_hc32l136.o(i.IRQ008_Handler)
    i.IRQ009_Handler                         0x00006c7c   Section        0  interrupts_hc32l136.o(i.IRQ009_Handler)
    i.IRQ010_Handler                         0x00006c86   Section        0  interrupts_hc32l136.o(i.IRQ010_Handler)
    i.IRQ011_Handler                         0x00006c90   Section        0  interrupts_hc32l136.o(i.IRQ011_Handler)
    i.IRQ012_Handler                         0x00006c9a   Section        0  interrupts_hc32l136.o(i.IRQ012_Handler)
    i.IRQ013_Handler                         0x00006ca4   Section        0  interrupts_hc32l136.o(i.IRQ013_Handler)
    i.IRQ014_Handler                         0x00006cae   Section        0  interrupts_hc32l136.o(i.IRQ014_Handler)
    i.IRQ015_Handler                         0x00006cb8   Section        0  interrupts_hc32l136.o(i.IRQ015_Handler)
    i.IRQ016_Handler                         0x00006cc2   Section        0  interrupts_hc32l136.o(i.IRQ016_Handler)
    i.IRQ017_Handler                         0x00006ccc   Section        0  interrupts_hc32l136.o(i.IRQ017_Handler)
    i.IRQ018_Handler                         0x00006cd6   Section        0  interrupts_hc32l136.o(i.IRQ018_Handler)
    i.IRQ019_Handler                         0x00006ce0   Section        0  interrupts_hc32l136.o(i.IRQ019_Handler)
    i.IRQ020_Handler                         0x00006cea   Section        0  interrupts_hc32l136.o(i.IRQ020_Handler)
    i.IRQ021_Handler                         0x00006cf4   Section        0  interrupts_hc32l136.o(i.IRQ021_Handler)
    i.IRQ022_Handler                         0x00006cfe   Section        0  interrupts_hc32l136.o(i.IRQ022_Handler)
    i.IRQ023_Handler                         0x00006d08   Section        0  interrupts_hc32l136.o(i.IRQ023_Handler)
    i.IRQ024_Handler                         0x00006d12   Section        0  interrupts_hc32l136.o(i.IRQ024_Handler)
    i.IRQ025_Handler                         0x00006d1c   Section        0  interrupts_hc32l136.o(i.IRQ025_Handler)
    i.IRQ026_Handler                         0x00006d26   Section        0  interrupts_hc32l136.o(i.IRQ026_Handler)
    i.IRQ027_Handler                         0x00006d30   Section        0  interrupts_hc32l136.o(i.IRQ027_Handler)
    i.IRQ028_Handler                         0x00006d3a   Section        0  interrupts_hc32l136.o(i.IRQ028_Handler)
    i.IRQ029_Handler                         0x00006d44   Section        0  interrupts_hc32l136.o(i.IRQ029_Handler)
    i.IRQ030_Handler                         0x00006d4e   Section        0  interrupts_hc32l136.o(i.IRQ030_Handler)
    i.IRQ031_Handler                         0x00006d58   Section        0  interrupts_hc32l136.o(i.IRQ031_Handler)
    i.KeyDisableIRQ                          0x00006d62   Section        0  key.o(i.KeyDisableIRQ)
    KeyDisableIRQ                            0x00006d63   Thumb Code    34  key.o(i.KeyDisableIRQ)
    i.KeyHandler                             0x00006d84   Section        0  main.o(i.KeyHandler)
    i.LED_Status_Control                     0x00006f8c   Section        0  main.o(i.LED_Status_Control)
    LED_Status_Control                       0x00006f8d   Thumb Code   536  main.o(i.LED_Status_Control)
    i.LPUartGetInternDataPtr                 0x000071b0   Section        0  lpuart.o(i.LPUartGetInternDataPtr)
    LPUartGetInternDataPtr                   0x000071b1   Thumb Code    44  lpuart.o(i.LPUartGetInternDataPtr)
    i.LPUart_CalScnt                         0x000071e0   Section        0  lpuart.o(i.LPUart_CalScnt)
    i.LPUart_ClrStatus                       0x00007250   Section        0  lpuart.o(i.LPUart_ClrStatus)
    i.LPUart_EnableFunc                      0x000072c4   Section        0  lpuart.o(i.LPUart_EnableFunc)
    i.LPUart_EnableIrq                       0x0000734c   Section        0  lpuart.o(i.LPUart_EnableIrq)
    i.LPUart_Init                            0x000073e6   Section        0  lpuart.o(i.LPUart_Init)
    i.LPUart_SelSclk                         0x00007460   Section        0  lpuart.o(i.LPUart_SelSclk)
    i.LPUart_SetBaud                         0x000074b4   Section        0  lpuart.o(i.LPUart_SetBaud)
    i.LPUart_SetClkDiv                       0x000074cc   Section        0  lpuart.o(i.LPUart_SetClkDiv)
    i.LPUart_SetMMDOrCk                      0x000074f8   Section        0  lpuart.o(i.LPUart_SetMMDOrCk)
    i.LPUart_SetMode                         0x00007528   Section        0  lpuart.o(i.LPUart_SetMode)
    i.LPUart_SetMultiMode                    0x00007558   Section        0  lpuart.o(i.LPUart_SetMultiMode)
    i.LPUart_SetStopBit                      0x000075a0   Section        0  lpuart.o(i.LPUart_SetStopBit)
    i.Led_1_Init                             0x000075e6   Section        0  ledmotor.o(i.Led_1_Init)
    i.LowPowerHandler                        0x0000761c   Section        0  main.o(i.LowPowerHandler)
    LowPowerHandler                          0x0000761d   Thumb Code     2  main.o(i.LowPowerHandler)
    i.Massage3DModelPwmCHandler              0x00007620   Section        0  ems.o(i.Massage3DModelPwmCHandler)
    Massage3DModelPwmCHandler                0x00007621   Thumb Code   214  ems.o(i.Massage3DModelPwmCHandler)
    i.MassagePwmCHandler                     0x0000770c   Section        0  ems.o(i.MassagePwmCHandler)
    MassagePwmCHandler                       0x0000770d   Thumb Code   538  ems.o(i.MassagePwmCHandler)
    i.MassagePwmIdleHandler                  0x00007964   Section        0  ems.o(i.MassagePwmIdleHandler)
    MassagePwmIdleHandler                    0x00007965   Thumb Code   530  ems.o(i.MassagePwmIdleHandler)
    i.ModifyOne                              0x00007bb4   Section        0  ems.o(i.ModifyOne)
    ModifyOne                                0x00007bb5   Thumb Code     6  ems.o(i.ModifyOne)
    i.ModifyTwo                              0x00007bba   Section        0  ems.o(i.ModifyTwo)
    ModifyTwo                                0x00007bbb   Thumb Code     6  ems.o(i.ModifyTwo)
    i.Motor_Init                             0x00007bc0   Section        0  ledmotor.o(i.Motor_Init)
    i.Motor_vibration_Control                0x00007bf8   Section        0  main.o(i.Motor_vibration_Control)
    Motor_vibration_Control                  0x00007bf9   Thumb Code   516  main.o(i.Motor_vibration_Control)
    i.NTCSampleDataHandler                   0x00007e04   Section        0  ntctempsample.o(i.NTCSampleDataHandler)
    i.PErrIntCallBack                        0x00007e7c   Section        0  uarthandler.o(i.PErrIntCallBack)
    i.RxIntCallback                          0x00007e80   Section        0  uarthandler.o(i.RxIntCallback)
    i.SampleFilterFloatHandler               0x00007ea0   Section        0  util.o(i.SampleFilterFloatHandler)
    i.SampleFilterHandler                    0x00007f4c   Section        0  util.o(i.SampleFilterHandler)
    i.SoftTimeTask                           0x00007fc0   Section        0  main.o(i.SoftTimeTask)
    SoftTimeTask                             0x00007fc1   Thumb Code   226  main.o(i.SoftTimeTask)
    i.SoftTimerCount                         0x000080d4   Section        0  main.o(i.SoftTimerCount)
    i.Sysctrl_GetHClkFreq                    0x000080dc   Section        0  sysctrl.o(i.Sysctrl_GetHClkFreq)
    i.Sysctrl_GetPClkFreq                    0x00008250   Section        0  sysctrl.o(i.Sysctrl_GetPClkFreq)
    i.Sysctrl_SetPeripheralGate              0x00008270   Section        0  sysctrl.o(i.Sysctrl_SetPeripheralGate)
    i.Sysctrl_SetRCHTrim                     0x000082ac   Section        0  sysctrl.o(i.Sysctrl_SetRCHTrim)
    i.Sysctrl_SysClkSwitch                   0x00008348   Section        0  sysctrl.o(i.Sysctrl_SysClkSwitch)
    i.SystemCoreClockUpdate                  0x00008374   Section        0  system_hc32l136.o(i.SystemCoreClockUpdate)
    i.SystemInit                             0x00008384   Section        0  system_hc32l136.o(i.SystemInit)
    i.Tim2Int                                0x000083ac   Section        0  timehandler.o(i.Tim2Int)
    i.Tim3_ClearIntFlag                      0x000083e4   Section        0  timer3.o(i.Tim3_ClearIntFlag)
    i.Tim3_GetIntFlag                        0x000083f8   Section        0  timer3.o(i.Tim3_GetIntFlag)
    i.Tim3_M23_ARRSet                        0x00008410   Section        0  timer3.o(i.Tim3_M23_ARRSet)
    i.Tim3_M23_CCR_Set                       0x00008440   Section        0  timer3.o(i.Tim3_M23_CCR_Set)
    i.Tim3_M23_Cnt16Set                      0x000084e8   Section        0  timer3.o(i.Tim3_M23_Cnt16Set)
    i.Tim3_M23_EnPWM_Output                  0x00008504   Section        0  timer3.o(i.Tim3_M23_EnPWM_Output)
    i.Tim3_M23_PortOutput_Config             0x0000853c   Section        0  timer3.o(i.Tim3_M23_PortOutput_Config)
    i.Tim3_M23_Run                           0x000087f0   Section        0  timer3.o(i.Tim3_M23_Run)
    i.Tim3_M23_SetValidPeriod                0x00008808   Section        0  timer3.o(i.Tim3_M23_SetValidPeriod)
    i.Tim3_Mode23_Init                       0x00008824   Section        0  timer3.o(i.Tim3_Mode23_Init)
    i.Tim_IRQHandler                         0x000088f0   Section        0  bt.o(i.Tim_IRQHandler)
    i.Time0IntCallback                       0x00008944   Section        0  timehandler.o(i.Time0IntCallback)
    Time0IntCallback                         0x00008945   Thumb Code    28  timehandler.o(i.Time0IntCallback)
    i.Time3Breathing_Light_Duty              0x00008960   Section        0  timehandler.o(i.Time3Breathing_Light_Duty)
    i.Time3IntCallback                       0x0000896e   Section        0  timehandler.o(i.Time3IntCallback)
    Time3IntCallback                         0x0000896f   Thumb Code    20  timehandler.o(i.Time3IntCallback)
    i.TimeBoostPwmInit                       0x00008982   Section        0  timehandler.o(i.TimeBoostPwmInit)
    i.TimestampInit                          0x00008a48   Section        0  timehandler.o(i.TimestampInit)
    i.TimestampStart                         0x00008af4   Section        0  timehandler.o(i.TimestampStart)
    i.TimestampUpdateFreq                    0x00008b16   Section        0  timehandler.o(i.TimestampUpdateFreq)
    i.TxIntCallback                          0x00008b30   Section        0  uarthandler.o(i.TxIntCallback)
    i.UartDataParseHandler                   0x00008b58   Section        0  uarthandler.o(i.UartDataParseHandler)
    i.UartGetInternDataPtr                   0x00008bd8   Section        0  uart.o(i.UartGetInternDataPtr)
    UartGetInternDataPtr                     0x00008bd9   Thumb Code    44  uart.o(i.UartGetInternDataPtr)
    i.UartInit                               0x00008c08   Section        0  uarthandler.o(i.UartInit)
    i.Uart_PortInit                          0x00008d10   Section        0  uarthandler.o(i.Uart_PortInit)
    i.Uart_ReceiveData                       0x00008d4e   Section        0  uart.o(i.Uart_ReceiveData)
    i.Update2Time                            0x00008d6c   Section        0  timehandler.o(i.Update2Time)
    i._DirABAuto_And_CDAuto_PN               0x00008e04   Section        0  ems.o(i._DirABAuto_And_CDAuto_PN)
    _DirABAuto_And_CDAuto_PN                 0x00008e05   Thumb Code    16  ems.o(i._DirABAuto_And_CDAuto_PN)
    i._DirABC_T_D_PN                         0x00008e14   Section        0  ems.o(i._DirABC_T_D_PN)
    _DirABC_T_D_PN                           0x00008e15   Thumb Code    16  ems.o(i._DirABC_T_D_PN)
    i._DirABD_T_C_PN                         0x00008e24   Section        0  ems.o(i._DirABD_T_C_PN)
    _DirABD_T_C_PN                           0x00008e25   Thumb Code    16  ems.o(i._DirABD_T_C_PN)
    i._DirAB_And_CD_DisCharge                0x00008e34   Section        0  ems.o(i._DirAB_And_CD_DisCharge)
    _DirAB_And_CD_DisCharge                  0x00008e35   Thumb Code    14  ems.o(i._DirAB_And_CD_DisCharge)
    i._DirAB_And_CD_IDLE                     0x00008e42   Section        0  ems.o(i._DirAB_And_CD_IDLE)
    _DirAB_And_CD_IDLE                       0x00008e43   Thumb Code     2  ems.o(i._DirAB_And_CD_IDLE)
    i._DirACAutO_And_BDAut0_PN               0x00008e44   Section        0  ems.o(i._DirACAutO_And_BDAut0_PN)
    _DirACAutO_And_BDAut0_PN                 0x00008e45   Thumb Code    16  ems.o(i._DirACAutO_And_BDAut0_PN)
    i._DirACD_T_B_PN                         0x00008e54   Section        0  ems.o(i._DirACD_T_B_PN)
    _DirACD_T_B_PN                           0x00008e55   Thumb Code    16  ems.o(i._DirACD_T_B_PN)
    i._DirADAuto_And_BCAuto_PN               0x00008e64   Section        0  ems.o(i._DirADAuto_And_BCAuto_PN)
    _DirADAuto_And_BCAuto_PN                 0x00008e65   Thumb Code    16  ems.o(i._DirADAuto_And_BCAuto_PN)
    i._DirA_T_B_And_CDAuto_PN                0x00008e74   Section        0  ems.o(i._DirA_T_B_And_CDAuto_PN)
    _DirA_T_B_And_CDAuto_PN                  0x00008e75   Thumb Code    16  ems.o(i._DirA_T_B_And_CDAuto_PN)
    i._DirA_T_B_And_CD_No                    0x00008e84   Section        0  ems.o(i._DirA_T_B_And_CD_No)
    _DirA_T_B_And_CD_No                      0x00008e85   Thumb Code    28  ems.o(i._DirA_T_B_And_CD_No)
    i._DirA_T_B_And_CD_No_PN                 0x00008ea0   Section        0  ems.o(i._DirA_T_B_And_CD_No_PN)
    _DirA_T_B_And_CD_No_PN                   0x00008ea1   Thumb Code    16  ems.o(i._DirA_T_B_And_CD_No_PN)
    i._DirA_T_B_And_C_T_D                    0x00008eb0   Section        0  ems.o(i._DirA_T_B_And_C_T_D)
    _DirA_T_B_And_C_T_D                      0x00008eb1   Thumb Code    14  ems.o(i._DirA_T_B_And_C_T_D)
    i._DirA_T_B_And_D_T_C                    0x00008ebe   Section        0  ems.o(i._DirA_T_B_And_D_T_C)
    _DirA_T_B_And_D_T_C                      0x00008ebf   Thumb Code    14  ems.o(i._DirA_T_B_And_D_T_C)
    i._DirA_T_C_And_BDAuto_PN                0x00008ecc   Section        0  ems.o(i._DirA_T_C_And_BDAuto_PN)
    _DirA_T_C_And_BDAuto_PN                  0x00008ecd   Thumb Code    16  ems.o(i._DirA_T_C_And_BDAuto_PN)
    i._DirA_T_C_And_BD_No                    0x00008edc   Section        0  ems.o(i._DirA_T_C_And_BD_No)
    _DirA_T_C_And_BD_No                      0x00008edd   Thumb Code    16  ems.o(i._DirA_T_C_And_BD_No)
    i._DirA_T_C_And_BD_No_PN                 0x00008eec   Section        0  ems.o(i._DirA_T_C_And_BD_No_PN)
    _DirA_T_C_And_BD_No_PN                   0x00008eed   Thumb Code    16  ems.o(i._DirA_T_C_And_BD_No_PN)
    i._DirA_T_C_And_B_T_D                    0x00008efc   Section        0  ems.o(i._DirA_T_C_And_B_T_D)
    _DirA_T_C_And_B_T_D                      0x00008efd   Thumb Code    14  ems.o(i._DirA_T_C_And_B_T_D)
    i._DirA_T_C_And_D_T_B                    0x00008f0a   Section        0  ems.o(i._DirA_T_C_And_D_T_B)
    _DirA_T_C_And_D_T_B                      0x00008f0b   Thumb Code    14  ems.o(i._DirA_T_C_And_D_T_B)
    i._DirA_T_D_And_BCAuto_PN                0x00008f18   Section        0  ems.o(i._DirA_T_D_And_BCAuto_PN)
    _DirA_T_D_And_BCAuto_PN                  0x00008f19   Thumb Code    16  ems.o(i._DirA_T_D_And_BCAuto_PN)
    i._DirA_T_D_And_BC_No                    0x00008f28   Section        0  ems.o(i._DirA_T_D_And_BC_No)
    _DirA_T_D_And_BC_No                      0x00008f29   Thumb Code    16  ems.o(i._DirA_T_D_And_BC_No)
    i._DirA_T_D_And_BC_No_PN                 0x00008f38   Section        0  ems.o(i._DirA_T_D_And_BC_No_PN)
    _DirA_T_D_And_BC_No_PN                   0x00008f39   Thumb Code    16  ems.o(i._DirA_T_D_And_BC_No_PN)
    i._DirA_T_D_And_B_T_C                    0x00008f48   Section        0  ems.o(i._DirA_T_D_And_B_T_C)
    _DirA_T_D_And_B_T_C                      0x00008f49   Thumb Code    14  ems.o(i._DirA_T_D_And_B_T_C)
    i._DirA_T_D_And_C_T_B                    0x00008f56   Section        0  ems.o(i._DirA_T_D_And_C_T_B)
    _DirA_T_D_And_C_T_B                      0x00008f57   Thumb Code    14  ems.o(i._DirA_T_D_And_C_T_B)
    i._DirB_T_A_And_CDAuto_PN                0x00008f64   Section        0  ems.o(i._DirB_T_A_And_CDAuto_PN)
    _DirB_T_A_And_CDAuto_PN                  0x00008f65   Thumb Code    16  ems.o(i._DirB_T_A_And_CDAuto_PN)
    i._DirB_T_A_And_CD_No                    0x00008f74   Section        0  ems.o(i._DirB_T_A_And_CD_No)
    _DirB_T_A_And_CD_No                      0x00008f75   Thumb Code    14  ems.o(i._DirB_T_A_And_CD_No)
    i._DirB_T_A_And_CD_No_PN                 0x00008f82   Section        0  ems.o(i._DirB_T_A_And_CD_No_PN)
    _DirB_T_A_And_CD_No_PN                   0x00008f83   Thumb Code    16  ems.o(i._DirB_T_A_And_CD_No_PN)
    i._DirB_T_A_And_C_T_D                    0x00008f92   Section        0  ems.o(i._DirB_T_A_And_C_T_D)
    _DirB_T_A_And_C_T_D                      0x00008f93   Thumb Code    14  ems.o(i._DirB_T_A_And_C_T_D)
    i._DirB_T_A_And_D_T_C                    0x00008fa0   Section        0  ems.o(i._DirB_T_A_And_D_T_C)
    _DirB_T_A_And_D_T_C                      0x00008fa1   Thumb Code    14  ems.o(i._DirB_T_A_And_D_T_C)
    i._DirB_T_C_And_ADAuto_PN                0x00008fae   Section        0  ems.o(i._DirB_T_C_And_ADAuto_PN)
    _DirB_T_C_And_ADAuto_PN                  0x00008faf   Thumb Code    16  ems.o(i._DirB_T_C_And_ADAuto_PN)
    i._DirB_T_C_And_AD_No                    0x00008fbe   Section        0  ems.o(i._DirB_T_C_And_AD_No)
    _DirB_T_C_And_AD_No                      0x00008fbf   Thumb Code    16  ems.o(i._DirB_T_C_And_AD_No)
    i._DirB_T_C_And_AD_No_PN                 0x00008fce   Section        0  ems.o(i._DirB_T_C_And_AD_No_PN)
    _DirB_T_C_And_AD_No_PN                   0x00008fcf   Thumb Code    16  ems.o(i._DirB_T_C_And_AD_No_PN)
    i._DirB_T_C_And_A_T_D                    0x00008fde   Section        0  ems.o(i._DirB_T_C_And_A_T_D)
    _DirB_T_C_And_A_T_D                      0x00008fdf   Thumb Code    14  ems.o(i._DirB_T_C_And_A_T_D)
    i._DirB_T_C_And_D_T_A                    0x00008fec   Section        0  ems.o(i._DirB_T_C_And_D_T_A)
    _DirB_T_C_And_D_T_A                      0x00008fed   Thumb Code    14  ems.o(i._DirB_T_C_And_D_T_A)
    i._DirB_T_D_And_ACAuto_PN                0x00008ffa   Section        0  ems.o(i._DirB_T_D_And_ACAuto_PN)
    _DirB_T_D_And_ACAuto_PN                  0x00008ffb   Thumb Code    16  ems.o(i._DirB_T_D_And_ACAuto_PN)
    i._DirB_T_D_And_AC_No                    0x0000900a   Section        0  ems.o(i._DirB_T_D_And_AC_No)
    _DirB_T_D_And_AC_No                      0x0000900b   Thumb Code    16  ems.o(i._DirB_T_D_And_AC_No)
    i._DirB_T_D_And_AC_No_PN                 0x0000901a   Section        0  ems.o(i._DirB_T_D_And_AC_No_PN)
    _DirB_T_D_And_AC_No_PN                   0x0000901b   Thumb Code    16  ems.o(i._DirB_T_D_And_AC_No_PN)
    i._DirB_T_D_And_A_T_C                    0x0000902a   Section        0  ems.o(i._DirB_T_D_And_A_T_C)
    _DirB_T_D_And_A_T_C                      0x0000902b   Thumb Code    14  ems.o(i._DirB_T_D_And_A_T_C)
    i._DirB_T_D_And_C_T_A                    0x00009038   Section        0  ems.o(i._DirB_T_D_And_C_T_A)
    _DirB_T_D_And_C_T_A                      0x00009039   Thumb Code    14  ems.o(i._DirB_T_D_And_C_T_A)
    i._DirCBD_T_A_PN                         0x00009046   Section        0  ems.o(i._DirCBD_T_A_PN)
    _DirCBD_T_A_PN                           0x00009047   Thumb Code    16  ems.o(i._DirCBD_T_A_PN)
    i._DirC_T_A_And_BDAuto_PN                0x00009056   Section        0  ems.o(i._DirC_T_A_And_BDAuto_PN)
    _DirC_T_A_And_BDAuto_PN                  0x00009057   Thumb Code    16  ems.o(i._DirC_T_A_And_BDAuto_PN)
    i._DirC_T_A_And_BD_No                    0x00009066   Section        0  ems.o(i._DirC_T_A_And_BD_No)
    _DirC_T_A_And_BD_No                      0x00009067   Thumb Code    14  ems.o(i._DirC_T_A_And_BD_No)
    i._DirC_T_A_And_BD_No_PN                 0x00009074   Section        0  ems.o(i._DirC_T_A_And_BD_No_PN)
    _DirC_T_A_And_BD_No_PN                   0x00009075   Thumb Code    16  ems.o(i._DirC_T_A_And_BD_No_PN)
    i._DirC_T_A_And_B_T_D                    0x00009084   Section        0  ems.o(i._DirC_T_A_And_B_T_D)
    _DirC_T_A_And_B_T_D                      0x00009085   Thumb Code    14  ems.o(i._DirC_T_A_And_B_T_D)
    i._DirC_T_A_And_D_T_B                    0x00009092   Section        0  ems.o(i._DirC_T_A_And_D_T_B)
    _DirC_T_A_And_D_T_B                      0x00009093   Thumb Code    14  ems.o(i._DirC_T_A_And_D_T_B)
    i._DirC_T_B_And_ADAuto_PN                0x000090a0   Section        0  ems.o(i._DirC_T_B_And_ADAuto_PN)
    _DirC_T_B_And_ADAuto_PN                  0x000090a1   Thumb Code    16  ems.o(i._DirC_T_B_And_ADAuto_PN)
    i._DirC_T_B_And_AD_No                    0x000090b0   Section        0  ems.o(i._DirC_T_B_And_AD_No)
    _DirC_T_B_And_AD_No                      0x000090b1   Thumb Code    14  ems.o(i._DirC_T_B_And_AD_No)
    i._DirC_T_B_And_AD_No_PN                 0x000090be   Section        0  ems.o(i._DirC_T_B_And_AD_No_PN)
    _DirC_T_B_And_AD_No_PN                   0x000090bf   Thumb Code    16  ems.o(i._DirC_T_B_And_AD_No_PN)
    i._DirC_T_B_And_A_T_D                    0x000090ce   Section        0  ems.o(i._DirC_T_B_And_A_T_D)
    _DirC_T_B_And_A_T_D                      0x000090cf   Thumb Code    14  ems.o(i._DirC_T_B_And_A_T_D)
    i._DirC_T_B_And_D_T_A                    0x000090dc   Section        0  ems.o(i._DirC_T_B_And_D_T_A)
    _DirC_T_B_And_D_T_A                      0x000090dd   Thumb Code    14  ems.o(i._DirC_T_B_And_D_T_A)
    i._DirC_T_D_And_ABAuto_PN                0x000090ea   Section        0  ems.o(i._DirC_T_D_And_ABAuto_PN)
    _DirC_T_D_And_ABAuto_PN                  0x000090eb   Thumb Code    16  ems.o(i._DirC_T_D_And_ABAuto_PN)
    i._DirC_T_D_And_AB_No                    0x000090fa   Section        0  ems.o(i._DirC_T_D_And_AB_No)
    _DirC_T_D_And_AB_No                      0x000090fb   Thumb Code    14  ems.o(i._DirC_T_D_And_AB_No)
    i._DirC_T_D_And_AB_No_PN                 0x00009108   Section        0  ems.o(i._DirC_T_D_And_AB_No_PN)
    _DirC_T_D_And_AB_No_PN                   0x00009109   Thumb Code    16  ems.o(i._DirC_T_D_And_AB_No_PN)
    i._DirC_T_D_And_A_T_B                    0x00009118   Section        0  ems.o(i._DirC_T_D_And_A_T_B)
    _DirC_T_D_And_A_T_B                      0x00009119   Thumb Code    14  ems.o(i._DirC_T_D_And_A_T_B)
    i._DirC_T_D_And_B_T_A                    0x00009126   Section        0  ems.o(i._DirC_T_D_And_B_T_A)
    _DirC_T_D_And_B_T_A                      0x00009127   Thumb Code    14  ems.o(i._DirC_T_D_And_B_T_A)
    i._DirD_T_A_And_BC_AutO_PN               0x00009134   Section        0  ems.o(i._DirD_T_A_And_BC_AutO_PN)
    _DirD_T_A_And_BC_AutO_PN                 0x00009135   Thumb Code    16  ems.o(i._DirD_T_A_And_BC_AutO_PN)
    i._DirD_T_A_And_BC_No_PN                 0x00009144   Section        0  ems.o(i._DirD_T_A_And_BC_No_PN)
    _DirD_T_A_And_BC_No_PN                   0x00009145   Thumb Code    16  ems.o(i._DirD_T_A_And_BC_No_PN)
    i._DirD_T_A_And_B_T_C                    0x00009154   Section        0  ems.o(i._DirD_T_A_And_B_T_C)
    _DirD_T_A_And_B_T_C                      0x00009155   Thumb Code    14  ems.o(i._DirD_T_A_And_B_T_C)
    i._DirD_T_A_And_CB_No                    0x00009162   Section        0  ems.o(i._DirD_T_A_And_CB_No)
    _DirD_T_A_And_CB_No                      0x00009163   Thumb Code    16  ems.o(i._DirD_T_A_And_CB_No)
    i._DirD_T_A_And_C_T_B                    0x00009172   Section        0  ems.o(i._DirD_T_A_And_C_T_B)
    _DirD_T_A_And_C_T_B                      0x00009173   Thumb Code    14  ems.o(i._DirD_T_A_And_C_T_B)
    i._DirD_T_B_And_AC_No_PN                 0x00009180   Section        0  ems.o(i._DirD_T_B_And_AC_No_PN)
    _DirD_T_B_And_AC_No_PN                   0x00009181   Thumb Code    16  ems.o(i._DirD_T_B_And_AC_No_PN)
    i._DirD_T_C_And_AB_No_PN                 0x00009190   Section        0  ems.o(i._DirD_T_C_And_AB_No_PN)
    _DirD_T_C_And_AB_No_PN                   0x00009191   Thumb Code    16  ems.o(i._DirD_T_C_And_AB_No_PN)
    i._GpioEnableIrq                         0x000091a0   Section        0  gpio.o(i._GpioEnableIrq)
    _GpioEnableIrq                           0x000091a1   Thumb Code   208  gpio.o(i._GpioEnableIrq)
    i._SysctrlUnlock                         0x00009274   Section        0  sysctrl.o(i._SysctrlUnlock)
    _SysctrlUnlock                           0x00009275   Thumb Code    12  sysctrl.o(i._SysctrlUnlock)
    i.__ARM_common_switch8                   0x0000928c   Section        0  main.o(i.__ARM_common_switch8)
    i.__NVIC_ClearPendingIRQ                 0x000092a8   Section        0  adt.o(i.__NVIC_ClearPendingIRQ)
    __NVIC_ClearPendingIRQ                   0x000092a9   Thumb Code    18  adt.o(i.__NVIC_ClearPendingIRQ)
    i.__NVIC_SetPriority                     0x000092c0   Section        0  interrupts_hc32l136.o(i.__NVIC_SetPriority)
    __NVIC_SetPriority                       0x000092c1   Thumb Code   110  interrupts_hc32l136.o(i.__NVIC_SetPriority)
    i.__NVIC_SetPriority                     0x00009338   Section        0  adt.o(i.__NVIC_SetPriority)
    __NVIC_SetPriority                       0x00009339   Thumb Code   110  adt.o(i.__NVIC_SetPriority)
    i.__scatterload_copy                     0x000093b0   Section       14  handlers.o(i.__scatterload_copy)
    i.__scatterload_null                     0x000093be   Section        2  handlers.o(i.__scatterload_null)
    i.__scatterload_zeroinit                 0x000093c0   Section       14  handlers.o(i.__scatterload_zeroinit)
    i.breathing_LightInit                    0x000093d0   Section        0  timehandler.o(i.breathing_LightInit)
    i.ddl_memclr                             0x00009498   Section        0  ddl.o(i.ddl_memclr)
    i.delay10us                              0x000094b8   Section        0  ddl.o(i.delay10us)
    i.delay1us                               0x00009518   Section        0  ddl.o(i.delay1us)
    i.keyScan                                0x00009560   Section        0  key.o(i.keyScan)
    i.key_Delay_Init                         0x0000962c   Section        0  main.o(i.key_Delay_Init)
    key_Delay_Init                           0x0000962d   Thumb Code    28  main.o(i.key_Delay_Init)
    i.main                                   0x0000964c   Section        0  main.o(i.main)
    i.peripheralInit                         0x0000969c   Section        0  main.o(i.peripheralInit)
    peripheralInit                           0x0000969d   Thumb Code    48  main.o(i.peripheralInit)
    .constdata                               0x000096cc   Section        4  main.o(.constdata)
    .constdata                               0x000096d0   Section       24  sysctrl.o(.constdata)
    .ARM.__AT_0x20000000                     0x20000000   Section      192  flash_handler.o(.ARM.__AT_0x20000000)
    .data                                    0x200000c0   Section       53  uarthandler.o(.data)
    .data                                    0x200000f6   Section       45  main.o(.data)
    MassageTemp                              0x2000010e   Data           9  main.o(.data)
    Heat_temperature_Switch_Status           0x20000117   Data           1  main.o(.data)
    ChargeStatus                             0x20000118   Data           1  main.o(.data)
    flag                                     0x20000119   Data           1  main.o(.data)
    flagold                                  0x2000011a   Data           1  main.o(.data)
    time10ms                                 0x2000011b   Data           1  main.o(.data)
    time100ms                                0x2000011c   Data           1  main.o(.data)
    time1s                                   0x2000011d   Data           1  main.o(.data)
    ElectriceTyp                             0x2000011e   Data           1  main.o(.data)
    ElectriceTypOld                          0x2000011f   Data           1  main.o(.data)
    CheckCount                               0x20000120   Data           1  main.o(.data)
    Led_status_Old                           0x20000121   Data           1  main.o(.data)
    ErrorCount                               0x20000122   Data           1  main.o(.data)
    .data                                    0x20000124   Section       31  key.o(.data)
    OldKeyValue                              0x20000140   Data           1  key.o(.data)
    TempErrcount                             0x20000141   Data           1  key.o(.data)
    status_checkBuffOld                      0x20000142   Data           1  key.o(.data)
    .data                                    0x20000144   Section     2198  ems.o(.data)
    PwmDirOld                                0x200009cc   Data           1  ems.o(.data)
    alternateDir                             0x200009cd   Data           1  ems.o(.data)
    OldValue                                 0x200009ce   Data           2  ems.o(.data)
    DirPNAlterMoveCount                      0x200009d0   Data           1  ems.o(.data)
    PwmDirOld                                0x200009d1   Data           1  ems.o(.data)
    alternateDir                             0x200009d2   Data           1  ems.o(.data)
    OldValue                                 0x200009d4   Data           2  ems.o(.data)
    DirPNAlterMoveCount                      0x200009d6   Data           1  ems.o(.data)
    OldValue                                 0x200009d8   Data           2  ems.o(.data)
    .data                                    0x200009dc   Section      120  ntctempsample.o(.data)
    NTCTempVoltage                           0x200009dc   Data         120  ntctempsample.o(.data)
    .data                                    0x20000a54   Section        4  system_hc32l136.o(.data)
    .data                                    0x20000a58   Section       12  bt.o(.data)
    pfnTim0Callback                          0x20000a58   Data           4  bt.o(.data)
    pfnTim1Callback                          0x20000a5c   Data           4  bt.o(.data)
    pfnTim2Callback                          0x20000a60   Data           4  bt.o(.data)
    .data                                    0x20000a64   Section        4  timer3.o(.data)
    pfnTim3Callback                          0x20000a64   Data           4  timer3.o(.data)
    .data                                    0x20000a68   Section       56  uart.o(.data)
    m_astcUartInstanceDataLut                0x20000a68   Data          56  uart.o(.data)
    .data                                    0x20000aa0   Section       56  lpuart.o(.data)
    m_astcLPUartInstanceDataLut              0x20000aa0   Data          56  lpuart.o(.data)
    .bss                                     0x20000ad8   Section      508  main.o(.bss)
    .bss                                     0x20000cd4   Section       40  adcsample.o(.bss)
    .bss                                     0x20000cfc   Section       16  ems.o(.bss)
    .bss                                     0x20000d0c   Section       64  ntctempsample.o(.bss)
    .bss                                     0x20000d4c   Section       16  dmac.o(.bss)
    stcDmaIrqCalbaks                         0x20000d4c   Data          16  dmac.o(.bss)
    .bss                                     0x20000d5c   Section      192  adt.o(.bss)
    pfnAdtIrqCbk                             0x20000d5c   Data         192  adt.o(.bss)
    STACK                                    0x20000e20   Section      512  startup_hc32l136.o(STACK)

    Global Symbols

    Symbol Name                              Value     Ov Type        Size  Object(Section)

    BuildAttributes$$THM_ISAv3M$S$PE$A:L22$X:L11$S22$IEEE1$IW$USESV6$~STKCKD$USESV7$~SHL$OTIME$ROPI$EBA8$MICROLIB$REQ8$PRES8$EABIv2 0x00000000   Number         0  anon$$obj.o ABSOLUTE
    __ARM_use_no_argv                        0x00000000   Number         0  main.o ABSOLUTE
    __Vectors                                0x00000000   Data           4  startup_hc32l136.o(RESET)
    __use_no_errno                           0x00000000   Number         0  useno.o ABSOLUTE
    __use_no_exception_handling              0x00000000   Number         0  useno.o ABSOLUTE
    __use_no_fp                              0x00000000   Number         0  useno.o ABSOLUTE
    __use_no_heap                            0x00000000   Number         0  useno.o ABSOLUTE
    __use_no_heap_region                     0x00000000   Number         0  useno.o ABSOLUTE
    __use_no_semihosting                     0x00000000   Number         0  useno.o ABSOLUTE
    __use_no_semihosting_swi                 0x00000000   Number         0  useno.o ABSOLUTE
    __use_no_signal_handling                 0x00000000   Number         0  useno.o ABSOLUTE
    I2c_IRQHandler                            - Undefined Weak Reference
    Lcd_IRQHandler                            - Undefined Weak Reference
    LpTim_IRQHandler                          - Undefined Weak Reference
    Lvd_IRQHandler                            - Undefined Weak Reference
    Pca_IRQHandler                            - Undefined Weak Reference
    Pcnt_IRQHandler                           - Undefined Weak Reference
    Rtc_IRQHandler                            - Undefined Weak Reference
    Spi_IRQHandler                            - Undefined Weak Reference
    Vc_IRQHandler                             - Undefined Weak Reference
    Wdt_IRQHandler                            - Undefined Weak Reference
    __cpp_initialize__aeabi_                  - Undefined Weak Reference
    __cxa_finalize                            - Undefined Weak Reference
    _clock_init                               - Undefined Weak Reference
    _microlib_exit                            - Undefined Weak Reference
    __Vectors_End                            0x000000c0   Data           0  startup_hc32l136.o(RESET)
    __Vectors_Size                           0x000000c0   Number         0  startup_hc32l136.o ABSOLUTE
    __main                                   0x000000c1   Thumb Code     0  entry.o(.ARM.Collect$$$$00000000)
    _main_stk                                0x000000c1   Thumb Code     0  entry2.o(.ARM.Collect$$$$00000001)
    _main_scatterload                        0x000000c5   Thumb Code     0  entry5.o(.ARM.Collect$$$$00000004)
    __main_after_scatterload                 0x000000c9   Thumb Code     0  entry5.o(.ARM.Collect$$$$00000004)
    _main_clock                              0x000000c9   Thumb Code     0  entry7b.o(.ARM.Collect$$$$00000008)
    _main_cpp_init                           0x000000c9   Thumb Code     0  entry8b.o(.ARM.Collect$$$$0000000A)
    _main_init                               0x000000c9   Thumb Code     0  entry9a.o(.ARM.Collect$$$$0000000B)
    __rt_final_cpp                           0x000000d1   Thumb Code     0  entry10a.o(.ARM.Collect$$$$0000000D)
    __rt_final_exit                          0x000000d1   Thumb Code     0  entry11a.o(.ARM.Collect$$$$0000000F)
    Reset_Handler                            0x000000d5   Thumb Code    26  startup_hc32l136.o(.text)
    NMI_Handler                              0x000000ef   Thumb Code     2  startup_hc32l136.o(.text)
    SVC_Handler                              0x000000f3   Thumb Code     2  startup_hc32l136.o(.text)
    PendSV_Handler                           0x000000f5   Thumb Code     2  startup_hc32l136.o(.text)
    SysTick_Handler                          0x000000f7   Thumb Code     2  startup_hc32l136.o(.text)
    __aeabi_uidiv                            0x00000111   Thumb Code     0  uidiv.o(.text)
    __aeabi_uidivmod                         0x00000111   Thumb Code    44  uidiv.o(.text)
    __aeabi_idiv                             0x0000013d   Thumb Code     0  idiv.o(.text)
    __aeabi_idivmod                          0x0000013d   Thumb Code    40  idiv.o(.text)
    __aeabi_memcpy                           0x00000165   Thumb Code    36  memcpya.o(.text)
    __aeabi_memcpy4                          0x00000165   Thumb Code     0  memcpya.o(.text)
    __aeabi_memcpy8                          0x00000165   Thumb Code     0  memcpya.o(.text)
    __aeabi_fadd                             0x00000189   Thumb Code   162  fadd.o(.text)
    __aeabi_fsub                             0x0000022b   Thumb Code     8  fadd.o(.text)
    __aeabi_frsub                            0x00000233   Thumb Code     8  fadd.o(.text)
    __aeabi_fmul                             0x0000023b   Thumb Code   122  fmul.o(.text)
    __aeabi_fdiv                             0x000002b5   Thumb Code   124  fdiv.o(.text)
    __aeabi_ui2f                             0x00000331   Thumb Code    14  ffltui.o(.text)
    __aeabi_f2uiz                            0x0000033f   Thumb Code    40  ffixui.o(.text)
    __aeabi_cfcmpeq                          0x00000369   Thumb Code     0  cfcmple.o(.text)
    __aeabi_cfcmple                          0x00000369   Thumb Code    20  cfcmple.o(.text)
    __aeabi_cfrcmple                         0x0000037d   Thumb Code    20  cfrcmple.o(.text)
    __I$use$fp                               0x00000391   Thumb Code     0  iusefp.o(.text)
    _float_round                             0x00000391   Thumb Code    16  fepilogue.o(.text)
    _float_epilogue                          0x000003a1   Thumb Code   114  fepilogue.o(.text)
    __scatterload                            0x00000415   Thumb Code    28  init.o(.text)
    __scatterload_rt2                        0x00000415   Thumb Code     0  init.o(.text)
    __decompress                             0x00000439   Thumb Code     0  __dczerorl2.o(.text)
    __decompress1                            0x00000439   Thumb Code    86  __dczerorl2.o(.text)
    AdcSampleInit                            0x00000491   Thumb Code   376  adcsample.o(i.AdcSampleInit)
    Adc_ConfigDmaTrig                        0x00000735   Thumb Code    44  adc.o(i.Adc_ConfigDmaTrig)
    Adc_ConfigSqrChannel                     0x00000765   Thumb Code   434  adc.o(i.Adc_ConfigSqrChannel)
    Adc_ConfigSqrMode                        0x0000091d   Thumb Code   122  adc.o(i.Adc_ConfigSqrMode)
    Adc_Enable                               0x0000099d   Thumb Code    16  adc.o(i.Adc_Enable)
    Adc_Init                                 0x000009b1   Thumb Code   140  adc.o(i.Adc_Init)
    Adc_SQR_Start                            0x00000a41   Thumb Code    16  adc.o(i.Adc_SQR_Start)
    Adc_SetVref                              0x00000a55   Thumb Code    78  adc.o(i.Adc_SetVref)
    Adt_CHxXPortConfig                       0x00000ad5   Thumb Code   468  adt.o(i.Adt_CHxXPortConfig)
    Adt_Init                                 0x00000cad   Thumb Code   128  adt.o(i.Adt_Init)
    Adt_SetCompareValue                      0x00000d35   Thumb Code    58  adt.o(i.Adt_SetCompareValue)
    Adt_SetPeriod                            0x00000d75   Thumb Code    24  adt.o(i.Adt_SetPeriod)
    Adt_StartCount                           0x00000d91   Thumb Code    30  adt.o(i.Adt_StartCount)
    Battery_Chg_Compl_Status_Check           0x00000db5   Thumb Code    58  key.o(i.Battery_Chg_Compl_Status_Check)
    Battery_Chg_Compl_Status_Init            0x00000df5   Thumb Code    38  key.o(i.Battery_Chg_Compl_Status_Init)
    Battery_Chg_Status_Pin_Init              0x00000e29   Thumb Code    38  key.o(i.Battery_Chg_Status_Pin_Init)
    Battery_Chg_Status_Pin_Scan              0x00000e51   Thumb Code   134  key.o(i.Battery_Chg_Status_Pin_Scan)
    Boost_Pwm                                0x00001135   Thumb Code    26  timehandler.o(i.Boost_Pwm)
    Boost_Start                              0x0000114f   Thumb Code    10  timehandler.o(i.Boost_Start)
    Bt_ClearAllIntFlag                       0x00001159   Thumb Code    70  bt.o(i.Bt_ClearAllIntFlag)
    Bt_ClearIntFlag                          0x000011a5   Thumb Code    22  bt.o(i.Bt_ClearIntFlag)
    Bt_GetIntFlag                            0x000011c1   Thumb Code    24  bt.o(i.Bt_GetIntFlag)
    Bt_M23_ARRSet                            0x000011dd   Thumb Code    44  bt.o(i.Bt_M23_ARRSet)
    Bt_M23_Cnt16Set                          0x0000120d   Thumb Code    26  bt.o(i.Bt_M23_Cnt16Set)
    Bt_M23_EnPWM_Output                      0x0000122d   Thumb Code    50  bt.o(i.Bt_M23_EnPWM_Output)
    Bt_M23_Run                               0x00001265   Thumb Code    24  bt.o(i.Bt_M23_Run)
    Bt_M23_SetValidPeriod                    0x00001281   Thumb Code    26  bt.o(i.Bt_M23_SetValidPeriod)
    Bt_Mode23_EnableIrq                      0x000012a1   Thumb Code   118  bt.o(i.Bt_Mode23_EnableIrq)
    Bt_Mode23_Init                           0x0000131d   Thumb Code   596  bt.o(i.Bt_Mode23_Init)
    CompareParaSize                          0x000015cf   Thumb Code    42  util.o(i.CompareParaSize)
    CtsIntCallBack                           0x000015f9   Thumb Code     2  uarthandler.o(i.CtsIntCallBack)
    Delay_us                                 0x000015fb   Thumb Code    36  adcsample.o(i.Delay_us)
    DmaContIrqCallback                       0x00001655   Thumb Code     8  adcsample.o(i.DmaContIrqCallback)
    Dma_ConfigIrq                            0x00001661   Thumb Code   102  dmac.o(i.Dma_ConfigIrq)
    Dma_Enable                               0x000016cd   Thumb Code    20  dmac.o(i.Dma_Enable)
    Dma_EnableChannel                        0x000016e5   Thumb Code    60  dmac.o(i.Dma_EnableChannel)
    Dma_EnableChannelIrq                     0x00001725   Thumb Code    56  dmac.o(i.Dma_EnableChannelIrq)
    Dma_IRQHandler                           0x00001761   Thumb Code   238  dmac.o(i.Dma_IRQHandler)
    Dma_InitChannel                          0x00001859   Thumb Code   658  dmac.o(i.Dma_InitChannel)
    Dma_Start                                0x00001af1   Thumb Code    40  dmac.o(i.Dma_Start)
    EMSControlHandler                        0x00001b1d   Thumb Code   978  ems.o(i.EMSControlHandler)
    EMS_Port_Check_Pin_Init                  0x00001f19   Thumb Code    64  key.o(i.EMS_Port_Check_Pin_Init)
    EMS_Port_Init                            0x00001f59   Thumb Code   180  ems_port.o(i.EMS_Port_Init)
    EMS_Port_Pin_Status                      0x0000200d   Thumb Code   126  key.o(i.EMS_Port_Pin_Status)
    EMS_PwmControl                           0x00002095   Thumb Code    58  ems.o(i.EMS_PwmControl)
    EmsABAuto_And_CDAuto_PN                  0x000020dd   Thumb Code   632  ems_port.o(i.EmsABAuto_And_CDAuto_PN)
    EmsABC_T_D_PN                            0x00002355   Thumb Code   632  ems_port.o(i.EmsABC_T_D_PN)
    EmsABD_T_C_PN                            0x000025cd   Thumb Code   632  ems_port.o(i.EmsABD_T_C_PN)
    EmsACAutO_And_BDAuto_PN                  0x00002845   Thumb Code   632  ems_port.o(i.EmsACAutO_And_BDAuto_PN)
    EmsACD_T_B_PN                            0x00002abd   Thumb Code   632  ems_port.o(i.EmsACD_T_B_PN)
    EmsADAuto_And_BCAuto_PN                  0x00002d35   Thumb Code   632  ems_port.o(i.EmsADAuto_And_BCAuto_PN)
    EmsA_T_B_And_CDAuto_PN                   0x00002fad   Thumb Code   504  ems_port.o(i.EmsA_T_B_And_CDAuto_PN)
    EmsA_T_B_And_C_T_D                       0x000031a5   Thumb Code    76  ems_port.o(i.EmsA_T_B_And_C_T_D)
    EmsA_T_B_And_D_T_C                       0x000031f1   Thumb Code    76  ems_port.o(i.EmsA_T_B_And_D_T_C)
    EmsA_T_C_And_BDAuto_PN                   0x0000323d   Thumb Code   504  ems_port.o(i.EmsA_T_C_And_BDAuto_PN)
    EmsA_T_C_And_BD_No_PN                    0x00003435   Thumb Code   374  ems_port.o(i.EmsA_T_C_And_BD_No_PN)
    EmsA_T_C_And_B_T_D                       0x000035ab   Thumb Code    76  ems_port.o(i.EmsA_T_C_And_B_T_D)
    EmsA_T_C_And_D_T_B                       0x000035f7   Thumb Code    76  ems_port.o(i.EmsA_T_C_And_D_T_B)
    EmsA_T_D_And_BCAuto_PN                   0x00003643   Thumb Code   504  ems_port.o(i.EmsA_T_D_And_BCAuto_PN)
    EmsA_T_D_And_BC_No_PN                    0x0000383b   Thumb Code   376  ems_port.o(i.EmsA_T_D_And_BC_No_PN)
    EmsA_T_D_And_B_T_C                       0x000039b3   Thumb Code    76  ems_port.o(i.EmsA_T_D_And_B_T_C)
    EmsA_T_D_And_C_T_B                       0x000039ff   Thumb Code    76  ems_port.o(i.EmsA_T_D_And_C_T_B)
    EmsBCD_T_A_PN                            0x00003a4b   Thumb Code   632  ems_port.o(i.EmsBCD_T_A_PN)
    EmsB_T_A_And_CDAuto_PN                   0x00003cc3   Thumb Code   504  ems_port.o(i.EmsB_T_A_And_CDAuto_PN)
    EmsB_T_A_And_CD_No_PN                    0x00003ebb   Thumb Code   376  ems_port.o(i.EmsB_T_A_And_CD_No_PN)
    EmsB_T_A_And_C_T_D                       0x00004033   Thumb Code    76  ems_port.o(i.EmsB_T_A_And_C_T_D)
    EmsB_T_A_And_D_T_C                       0x0000407f   Thumb Code    76  ems_port.o(i.EmsB_T_A_And_D_T_C)
    EmsB_T_C_And_ADAuto_PN                   0x000040cb   Thumb Code   502  ems_port.o(i.EmsB_T_C_And_ADAuto_PN)
    EmsB_T_C_And_AD_No_PN                    0x000042c1   Thumb Code   376  ems_port.o(i.EmsB_T_C_And_AD_No_PN)
    EmsB_T_C_And_A_T_D                       0x00004439   Thumb Code    76  ems_port.o(i.EmsB_T_C_And_A_T_D)
    EmsB_T_C_And_D_T_A                       0x00004485   Thumb Code    76  ems_port.o(i.EmsB_T_C_And_D_T_A)
    EmsB_T_D_And_ACAuto_PN                   0x000044d1   Thumb Code   378  ems_port.o(i.EmsB_T_D_And_ACAuto_PN)
    EmsB_T_D_And_AC_No_PN                    0x0000464b   Thumb Code   374  ems_port.o(i.EmsB_T_D_And_AC_No_PN)
    EmsB_T_D_And_A_T_C                       0x000047c1   Thumb Code    76  ems_port.o(i.EmsB_T_D_And_A_T_C)
    EmsB_T_D_And_C_T_A                       0x0000480d   Thumb Code    76  ems_port.o(i.EmsB_T_D_And_C_T_A)
    EmsC_T_A_And_BDAuto_PN                   0x00004859   Thumb Code   504  ems_port.o(i.EmsC_T_A_And_BDAuto_PN)
    EmsC_T_A_And_BD_No                       0x00004a51   Thumb Code    44  ems_port.o(i.EmsC_T_A_And_BD_No)
    EmsC_T_A_And_BD_No_PN                    0x00004a7d   Thumb Code   376  ems_port.o(i.EmsC_T_A_And_BD_No_PN)
    EmsC_T_A_And_B_T_D                       0x00004bf5   Thumb Code    76  ems_port.o(i.EmsC_T_A_And_B_T_D)
    EmsC_T_A_And_D_T_B                       0x00004c41   Thumb Code    76  ems_port.o(i.EmsC_T_A_And_D_T_B)
    EmsC_T_B_And_ADAuto_PN                   0x00004c8d   Thumb Code   504  ems_port.o(i.EmsC_T_B_And_ADAuto_PN)
    EmsC_T_B_And_AD_No                       0x00004e85   Thumb Code    44  ems_port.o(i.EmsC_T_B_And_AD_No)
    EmsC_T_B_And_AD_No_PN                    0x00004eb1   Thumb Code   376  ems_port.o(i.EmsC_T_B_And_AD_No_PN)
    EmsC_T_B_And_A_T_D                       0x00005029   Thumb Code    76  ems_port.o(i.EmsC_T_B_And_A_T_D)
    EmsC_T_B_And_D_T_A                       0x00005075   Thumb Code    76  ems_port.o(i.EmsC_T_B_And_D_T_A)
    EmsC_T_D_And_ABAuto_PN                   0x000050c1   Thumb Code   504  ems_port.o(i.EmsC_T_D_And_ABAuto_PN)
    EmsC_T_D_And_AB_No                       0x000052b9   Thumb Code    44  ems_port.o(i.EmsC_T_D_And_AB_No)
    EmsC_T_D_And_AB_No_PN                    0x000052e5   Thumb Code   376  ems_port.o(i.EmsC_T_D_And_AB_No_PN)
    EmsC_T_D_And_A_T_B                       0x0000545d   Thumb Code    76  ems_port.o(i.EmsC_T_D_And_A_T_B)
    EmsC_T_D_And_B_T_A                       0x000054a9   Thumb Code    76  ems_port.o(i.EmsC_T_D_And_B_T_A)
    EmsD_T_A_And_BC_AutO_PN                  0x000054f5   Thumb Code   504  ems_port.o(i.EmsD_T_A_And_BC_AutO_PN)
    EmsD_T_A_And_BC_No_PN                    0x000056ed   Thumb Code   376  ems_port.o(i.EmsD_T_A_And_BC_No_PN)
    EmsD_T_A_And_B_T_C                       0x00005865   Thumb Code    76  ems_port.o(i.EmsD_T_A_And_B_T_C)
    EmsD_T_A_And_C_T_B                       0x000058b1   Thumb Code    76  ems_port.o(i.EmsD_T_A_And_C_T_B)
    EmsD_T_B_And_AC_No_PN                    0x000058fd   Thumb Code   376  ems_port.o(i.EmsD_T_B_And_AC_No_PN)
    EmsD_T_C_And_AB_No_PN                    0x00005a75   Thumb Code   376  ems_port.o(i.EmsD_T_C_And_AB_No_PN)
    Ems_AB_And_CD_Discharge                  0x00005cc5   Thumb Code   140  ems_port.o(i.Ems_AB_And_CD_Discharge)
    Ems_AB_And_CD_Four                       0x00005d51   Thumb Code   140  ems_port.o(i.Ems_AB_And_CD_Four)
    Ems_AToB_And_Ems_CToD_PNAlter_N          0x00005ddd   Thumb Code   152  ems_port.o(i.Ems_AToB_And_Ems_CToD_PNAlter_N)
    Ems_AToB_And_Ems_CToD_PNAlter_P          0x00005e75   Thumb Code   152  ems_port.o(i.Ems_AToB_And_Ems_CToD_PNAlter_P)
    Ems_AToB_Ems_CToD_FS_N                   0x00005f0d   Thumb Code    76  ems_port.o(i.Ems_AToB_Ems_CToD_FS_N)
    Ems_AToB_Ems_CToD_FS_P                   0x00005f59   Thumb Code    76  ems_port.o(i.Ems_AToB_Ems_CToD_FS_P)
    Ems_A_T_B_And_CD_No_PN                   0x00005fa5   Thumb Code   372  ems_port.o(i.Ems_A_T_B_And_CD_No_PN)
    Ems_A_To_Ems_B_Double                    0x00006119   Thumb Code    76  ems_port.o(i.Ems_A_To_Ems_B_Double)
    Ems_A_To_Ems_B_FS_N                      0x00006165   Thumb Code    44  ems_port.o(i.Ems_A_To_Ems_B_FS_N)
    Ems_A_To_Ems_B_FS_P                      0x00006191   Thumb Code    44  ems_port.o(i.Ems_A_To_Ems_B_FS_P)
    Ems_A_To_Ems_B_PNAlter_N                 0x000061bd   Thumb Code    88  ems_port.o(i.Ems_A_To_Ems_B_PNAlter_N)
    Ems_A_To_Ems_B_PNAlter_P                 0x00006215   Thumb Code    88  ems_port.o(i.Ems_A_To_Ems_B_PNAlter_P)
    Ems_A_To_Ems_B_Single_N                  0x0000626d   Thumb Code    44  ems_port.o(i.Ems_A_To_Ems_B_Single_N)
    Ems_A_To_Ems_B_Single_P                  0x00006299   Thumb Code    44  ems_port.o(i.Ems_A_To_Ems_B_Single_P)
    Ems_Output_Close                         0x0000659d   Thumb Code    16  ems.o(i.Ems_Output_Close)
    Ems_ParaInit                             0x000065b1   Thumb Code    58  ems.o(i.Ems_ParaInit)
    Ems_Start                                0x000065f1   Thumb Code    12  ems.o(i.Ems_Start)
    EnableNvic                               0x000065fd   Thumb Code   120  interrupts_hc32l136.o(i.EnableNvic)
    ErrIntCallback                           0x0000667d   Thumb Code     2  uarthandler.o(i.ErrIntCallback)
    ExtTrigInterrupteRouseDisable            0x0000667f   Thumb Code    16  key.o(i.ExtTrigInterrupteRouseDisable)
    Flash_WaitCycle                          0x0000672d   Thumb Code    86  flash.o(i.Flash_WaitCycle)
    Gpio_ClearIrq                            0x00006795   Thumb Code    24  gpio.o(i.Gpio_ClearIrq)
    Gpio_ClrIO                               0x000067b1   Thumb Code    24  gpio.o(i.Gpio_ClrIO)
    Gpio_DisableIrq                          0x000067cd   Thumb Code    24  gpio.o(i.Gpio_DisableIrq)
    Gpio_EnableIrq                           0x000067e5   Thumb Code    24  gpio.o(i.Gpio_EnableIrq)
    Gpio_GetInputIO                          0x000067fd   Thumb Code    16  gpio.o(i.Gpio_GetInputIO)
    Gpio_GetIrqStatus                        0x00006811   Thumb Code    16  gpio.o(i.Gpio_GetIrqStatus)
    Gpio_IRQHandler                          0x00006825   Thumb Code   132  key.o(i.Gpio_IRQHandler)
    Gpio_Init                                0x000068ad   Thumb Code   318  gpio.o(i.Gpio_Init)
    Gpio_SetAfMode                           0x000069f9   Thumb Code    16  gpio.o(i.Gpio_SetAfMode)
    Gpio_SetAnalogMode                       0x00006a0d   Thumb Code    24  gpio.o(i.Gpio_SetAnalogMode)
    Gpio_SetIO                               0x00006a29   Thumb Code    24  gpio.o(i.Gpio_SetIO)
    HallSwitchStatusScan                     0x00006a45   Thumb Code   170  key.o(i.HallSwitchStatusScan)
    HallSwitchTrigTouchKeyInit               0x00006b01   Thumb Code    40  key.o(i.HallSwitchTrigTouchKeyInit)
    HardFault_Handler                        0x00006b37   Thumb Code    16  interrupts_hc32l136.o(i.HardFault_Handler)
    Heater_Init                              0x00006bed   Thumb Code    54  ledmotor.o(i.Heater_Init)
    IRQ000_Handler                           0x00006c23   Thumb Code    10  interrupts_hc32l136.o(i.IRQ000_Handler)
    IRQ001_Handler                           0x00006c2d   Thumb Code    10  interrupts_hc32l136.o(i.IRQ001_Handler)
    IRQ002_Handler                           0x00006c37   Thumb Code    10  interrupts_hc32l136.o(i.IRQ002_Handler)
    IRQ003_Handler                           0x00006c41   Thumb Code    10  interrupts_hc32l136.o(i.IRQ003_Handler)
    IRQ004_Handler                           0x00006c4b   Thumb Code    10  interrupts_hc32l136.o(i.IRQ004_Handler)
    IRQ005_Handler                           0x00006c55   Thumb Code    10  interrupts_hc32l136.o(i.IRQ005_Handler)
    IRQ006_Handler                           0x00006c5f   Thumb Code    10  interrupts_hc32l136.o(i.IRQ006_Handler)
    IRQ007_Handler                           0x00006c69   Thumb Code    10  interrupts_hc32l136.o(i.IRQ007_Handler)
    IRQ008_Handler                           0x00006c73   Thumb Code    10  interrupts_hc32l136.o(i.IRQ008_Handler)
    IRQ009_Handler                           0x00006c7d   Thumb Code    10  interrupts_hc32l136.o(i.IRQ009_Handler)
    IRQ010_Handler                           0x00006c87   Thumb Code    10  interrupts_hc32l136.o(i.IRQ010_Handler)
    IRQ011_Handler                           0x00006c91   Thumb Code    10  interrupts_hc32l136.o(i.IRQ011_Handler)
    IRQ012_Handler                           0x00006c9b   Thumb Code    10  interrupts_hc32l136.o(i.IRQ012_Handler)
    IRQ013_Handler                           0x00006ca5   Thumb Code    10  interrupts_hc32l136.o(i.IRQ013_Handler)
    IRQ014_Handler                           0x00006caf   Thumb Code    10  interrupts_hc32l136.o(i.IRQ014_Handler)
    IRQ015_Handler                           0x00006cb9   Thumb Code    10  interrupts_hc32l136.o(i.IRQ015_Handler)
    IRQ016_Handler                           0x00006cc3   Thumb Code    10  interrupts_hc32l136.o(i.IRQ016_Handler)
    IRQ017_Handler                           0x00006ccd   Thumb Code    10  interrupts_hc32l136.o(i.IRQ017_Handler)
    IRQ018_Handler                           0x00006cd7   Thumb Code    10  interrupts_hc32l136.o(i.IRQ018_Handler)
    IRQ019_Handler                           0x00006ce1   Thumb Code    10  interrupts_hc32l136.o(i.IRQ019_Handler)
    IRQ020_Handler                           0x00006ceb   Thumb Code    10  interrupts_hc32l136.o(i.IRQ020_Handler)
    IRQ021_Handler                           0x00006cf5   Thumb Code    10  interrupts_hc32l136.o(i.IRQ021_Handler)
    IRQ022_Handler                           0x00006cff   Thumb Code    10  interrupts_hc32l136.o(i.IRQ022_Handler)
    IRQ023_Handler                           0x00006d09   Thumb Code    10  interrupts_hc32l136.o(i.IRQ023_Handler)
    IRQ024_Handler                           0x00006d13   Thumb Code    10  interrupts_hc32l136.o(i.IRQ024_Handler)
    IRQ025_Handler                           0x00006d1d   Thumb Code    10  interrupts_hc32l136.o(i.IRQ025_Handler)
    IRQ026_Handler                           0x00006d27   Thumb Code    10  interrupts_hc32l136.o(i.IRQ026_Handler)
    IRQ027_Handler                           0x00006d31   Thumb Code    10  interrupts_hc32l136.o(i.IRQ027_Handler)
    IRQ028_Handler                           0x00006d3b   Thumb Code    10  interrupts_hc32l136.o(i.IRQ028_Handler)
    IRQ029_Handler                           0x00006d45   Thumb Code    10  interrupts_hc32l136.o(i.IRQ029_Handler)
    IRQ030_Handler                           0x00006d4f   Thumb Code    10  interrupts_hc32l136.o(i.IRQ030_Handler)
    IRQ031_Handler                           0x00006d59   Thumb Code    10  interrupts_hc32l136.o(i.IRQ031_Handler)
    KeyHandler                               0x00006d85   Thumb Code   502  main.o(i.KeyHandler)
    LPUart_CalScnt                           0x000071e1   Thumb Code   112  lpuart.o(i.LPUart_CalScnt)
    LPUart_ClrStatus                         0x00007251   Thumb Code   116  lpuart.o(i.LPUart_ClrStatus)
    LPUart_EnableFunc                        0x000072c5   Thumb Code   136  lpuart.o(i.LPUart_EnableFunc)
    LPUart_EnableIrq                         0x0000734d   Thumb Code   154  lpuart.o(i.LPUart_EnableIrq)
    LPUart_Init                              0x000073e7   Thumb Code   122  lpuart.o(i.LPUart_Init)
    LPUart_SelSclk                           0x00007461   Thumb Code    84  lpuart.o(i.LPUart_SelSclk)
    LPUart_SetBaud                           0x000074b5   Thumb Code    24  lpuart.o(i.LPUart_SetBaud)
    LPUart_SetClkDiv                         0x000074cd   Thumb Code    44  lpuart.o(i.LPUart_SetClkDiv)
    LPUart_SetMMDOrCk                        0x000074f9   Thumb Code    48  lpuart.o(i.LPUart_SetMMDOrCk)
    LPUart_SetMode                           0x00007529   Thumb Code    48  lpuart.o(i.LPUart_SetMode)
    LPUart_SetMultiMode                      0x00007559   Thumb Code    72  lpuart.o(i.LPUart_SetMultiMode)
    LPUart_SetStopBit                        0x000075a1   Thumb Code    70  lpuart.o(i.LPUart_SetStopBit)
    Led_1_Init                               0x000075e7   Thumb Code    54  ledmotor.o(i.Led_1_Init)
    Motor_Init                               0x00007bc1   Thumb Code    54  ledmotor.o(i.Motor_Init)
    NTCSampleDataHandler                     0x00007e05   Thumb Code   102  ntctempsample.o(i.NTCSampleDataHandler)
    PErrIntCallBack                          0x00007e7d   Thumb Code     2  uarthandler.o(i.PErrIntCallBack)
    RxIntCallback                            0x00007e81   Thumb Code    24  uarthandler.o(i.RxIntCallback)
    SampleFilterFloatHandler                 0x00007ea1   Thumb Code   166  util.o(i.SampleFilterFloatHandler)
    SampleFilterHandler                      0x00007f4d   Thumb Code   112  util.o(i.SampleFilterHandler)
    SoftTimerCount                           0x000080d5   Thumb Code     8  main.o(i.SoftTimerCount)
    Sysctrl_GetHClkFreq                      0x000080dd   Thumb Code   354  sysctrl.o(i.Sysctrl_GetHClkFreq)
    Sysctrl_GetPClkFreq                      0x00008251   Thumb Code    28  sysctrl.o(i.Sysctrl_GetPClkFreq)
    Sysctrl_SetPeripheralGate                0x00008271   Thumb Code    54  sysctrl.o(i.Sysctrl_SetPeripheralGate)
    Sysctrl_SetRCHTrim                       0x000082ad   Thumb Code   148  sysctrl.o(i.Sysctrl_SetRCHTrim)
    Sysctrl_SysClkSwitch                     0x00008349   Thumb Code    40  sysctrl.o(i.Sysctrl_SysClkSwitch)
    SystemCoreClockUpdate                    0x00008375   Thumb Code    12  system_hc32l136.o(i.SystemCoreClockUpdate)
    SystemInit                               0x00008385   Thumb Code    30  system_hc32l136.o(i.SystemInit)
    Tim2Int                                  0x000083ad   Thumb Code    48  timehandler.o(i.Tim2Int)
    Tim3_ClearIntFlag                        0x000083e5   Thumb Code    16  timer3.o(i.Tim3_ClearIntFlag)
    Tim3_GetIntFlag                          0x000083f9   Thumb Code    18  timer3.o(i.Tim3_GetIntFlag)
    Tim3_M23_ARRSet                          0x00008411   Thumb Code    44  timer3.o(i.Tim3_M23_ARRSet)
    Tim3_M23_CCR_Set                         0x00008441   Thumb Code   162  timer3.o(i.Tim3_M23_CCR_Set)
    Tim3_M23_Cnt16Set                        0x000084e9   Thumb Code    22  timer3.o(i.Tim3_M23_Cnt16Set)
    Tim3_M23_EnPWM_Output                    0x00008505   Thumb Code    52  timer3.o(i.Tim3_M23_EnPWM_Output)
    Tim3_M23_PortOutput_Config               0x0000853d   Thumb Code   686  timer3.o(i.Tim3_M23_PortOutput_Config)
    Tim3_M23_Run                             0x000087f1   Thumb Code    18  timer3.o(i.Tim3_M23_Run)
    Tim3_M23_SetValidPeriod                  0x00008809   Thumb Code    22  timer3.o(i.Tim3_M23_SetValidPeriod)
    Tim3_Mode23_Init                         0x00008825   Thumb Code   194  timer3.o(i.Tim3_Mode23_Init)
    Tim_IRQHandler                           0x000088f1   Thumb Code    72  bt.o(i.Tim_IRQHandler)
    Time3Breathing_Light_Duty                0x00008961   Thumb Code    14  timehandler.o(i.Time3Breathing_Light_Duty)
    TimeBoostPwmInit                         0x00008983   Thumb Code   198  timehandler.o(i.TimeBoostPwmInit)
    TimestampInit                            0x00008a49   Thumb Code   164  timehandler.o(i.TimestampInit)
    TimestampStart                           0x00008af5   Thumb Code    34  timehandler.o(i.TimestampStart)
    TimestampUpdateFreq                      0x00008b17   Thumb Code    24  timehandler.o(i.TimestampUpdateFreq)
    TxIntCallback                            0x00008b31   Thumb Code    28  uarthandler.o(i.TxIntCallback)
    UartDataParseHandler                     0x00008b59   Thumb Code   122  uarthandler.o(i.UartDataParseHandler)
    UartInit                                 0x00008c09   Thumb Code   242  uarthandler.o(i.UartInit)
    Uart_PortInit                            0x00008d11   Thumb Code    62  uarthandler.o(i.Uart_PortInit)
    Uart_ReceiveData                         0x00008d4f   Thumb Code    30  uart.o(i.Uart_ReceiveData)
    Update2Time                              0x00008d6d   Thumb Code   148  timehandler.o(i.Update2Time)
    __ARM_common_switch8                     0x0000928d   Thumb Code    28  main.o(i.__ARM_common_switch8)
    __scatterload_copy                       0x000093b1   Thumb Code    14  handlers.o(i.__scatterload_copy)
    __scatterload_null                       0x000093bf   Thumb Code     2  handlers.o(i.__scatterload_null)
    __scatterload_zeroinit                   0x000093c1   Thumb Code    14  handlers.o(i.__scatterload_zeroinit)
    breathing_LightInit                      0x000093d1   Thumb Code   194  timehandler.o(i.breathing_LightInit)
    ddl_memclr                               0x00009499   Thumb Code    32  ddl.o(i.ddl_memclr)
    delay10us                                0x000094b9   Thumb Code    78  ddl.o(i.delay10us)
    delay1us                                 0x00009519   Thumb Code    64  ddl.o(i.delay1us)
    keyScan                                  0x00009561   Thumb Code   196  key.o(i.keyScan)
    main                                     0x0000964d   Thumb Code    80  main.o(i.main)
    Heat_temperatureTable                    0x000096cc   Data           4  main.o(.constdata)
    Region$$Table$$Base                      0x000096e8   Number         0  anon$$obj.o(Region$$Table)
    Region$$Table$$Limit                     0x00009708   Number         0  anon$$obj.o(Region$$Table)
    VectorTable                              0x20000000   Data         192  flash_handler.o(.ARM.__AT_0x20000000)
    u8TxData                                 0x200000c0   Data          50  uarthandler.o(.data)
    u8RxData                                 0x200000f2   Data           1  uarthandler.o(.data)
    u8TxCnt                                  0x200000f3   Data           1  uarthandler.o(.data)
    u8RxCnt                                  0x200000f4   Data           1  uarthandler.o(.data)
    IRQ_Start_Enable                         0x200000f6   Data           1  main.o(.data)
    invoking_interval_Time_flag              0x200000f7   Data           1  main.o(.data)
    softtime_Count_1ms                       0x200000f8   Data           1  main.o(.data)
    Motor_Vibr_Control                       0x200000fa   Data           6  main.o(.data)
    Led_Blink_control                        0x20000100   Data           6  main.o(.data)
    LowPowerControl                          0x20000106   Data           4  main.o(.data)
    key_delay_init                           0x2000010a   Data           4  main.o(.data)
    keyDataHandler                           0x20000124   Data           8  key.o(.data)
    Ems_Status_Check                         0x2000012c   Data           6  key.o(.data)
    Chg_Status_CheckHandler                  0x20000132   Data           5  key.o(.data)
    HallSwitchScan                           0x20000138   Data           8  key.o(.data)
    AcupunctureeMode_to_83Hz                 0x20000144   Data          12  ems.o(.data)
    AcupunctureeMode_to_166Hz                0x20000150   Data          12  ems.o(.data)
    AcupunctureeMode_to_122Hz                0x2000015c   Data          12  ems.o(.data)
    AcupunctureMode_toIDLE_2Hz_1S            0x20000168   Data          12  ems.o(.data)
    AcupunctureMode                          0x20000174   Data          80  ems.o(.data)
    malaxationMode_to_83Hz_1                 0x200001c4   Data          12  ems.o(.data)
    malaxationMode_toIDLE_8H9z               0x200001d0   Data          12  ems.o(.data)
    malaxationMode_to_83Hz_2                 0x200001dc   Data          12  ems.o(.data)
    malaxationMode_to_83Hz_3                 0x200001e8   Data          12  ems.o(.data)
    malaxationMode_to_83Hz_4                 0x200001f4   Data          12  ems.o(.data)
    MalaxationMode                           0x20000200   Data          80  ems.o(.data)
    scrapingMode_to_120Hz_80                 0x20000250   Data          12  ems.o(.data)
    scrapingMode_to_160Hz_90                 0x2000025c   Data          12  ems.o(.data)
    scrapingMode_to_200Hz_100                0x20000268   Data          12  ems.o(.data)
    scrapingMode_toIDLE_8H9z                 0x20000274   Data          12  ems.o(.data)
    scrapingMode_to_240Hz_480                0x20000280   Data          12  ems.o(.data)
    scrapingMode_toIDLE_2Hz_1                0x2000028c   Data          12  ems.o(.data)
    scrapingMode                             0x20000298   Data          64  ems.o(.data)
    sKMode_to_5Hz_80                         0x200002d8   Data          12  ems.o(.data)
    sKMode_to_10Hz_10                        0x200002e4   Data          12  ems.o(.data)
    sKMode_to_7H5z_8                         0x200002f0   Data          12  ems.o(.data)
    sKMode_toIDLE_8H9z                       0x200002fc   Data          12  ems.o(.data)
    sKMode_toIDLE_2Hz_1                      0x20000308   Data          12  ems.o(.data)
    KnockMode1Mode                           0x20000314   Data          48  ems.o(.data)
    MassageModeArray                         0x20000344   Data          32  ems.o(.data)
    Acupuncturee3DMode_to_83Hz               0x20000364   Data          12  ems.o(.data)
    Acupuncture3DMode_toIDLE_2Hz_1S          0x20000370   Data          12  ems.o(.data)
    Acupuncture3DMode                        0x2000037c   Data         232  ems.o(.data)
    malaxation3DMode_to_83Hz_1               0x20000464   Data          12  ems.o(.data)
    malaxation3DMode_toIDLE_8H9z             0x20000470   Data          12  ems.o(.data)
    malaxation3DMode_to_83Hz_2               0x2000047c   Data          12  ems.o(.data)
    Malaxation3DMode                         0x20000488   Data         304  ems.o(.data)
    scraping3DMode_to_83Hz_1                 0x200005b8   Data          12  ems.o(.data)
    scraping3DMode_toIDLE_8H9z               0x200005c4   Data          12  ems.o(.data)
    scraping3DMode                           0x200005d0   Data         200  ems.o(.data)
    Knock3DMode1_short8Hz5                   0x20000698   Data          12  ems.o(.data)
    Knock3DMode1_short4Hz9                   0x200006a4   Data          12  ems.o(.data)
    Knock3DMode1_short2Hz4                   0x200006b0   Data          12  ems.o(.data)
    Knock3DMode1_toIDLE_8H9z                 0x200006bc   Data          12  ems.o(.data)
    Knock3DMode1Mode                         0x200006c8   Data         304  ems.o(.data)
    KnockMode3DMassage                       0x200007f8   Data          32  ems.o(.data)
    MassageIDLEMode_to_116Hz                 0x20000818   Data          12  ems.o(.data)
    MassageIdleMode                          0x20000824   Data          24  ems.o(.data)
    MassageIDLEStatus                        0x2000083c   Data           8  ems.o(.data)
    Dir3DModeMassage_Invoke                  0x20000844   Data         244  ems.o(.data)
    Modify2Data                              0x20000938   Data           8  ems.o(.data)
    Dischargeinvoke                          0x20000940   Data          12  ems.o(.data)
    Dirforwardinvoke                         0x2000094c   Data          12  ems.o(.data)
    Dirreverseinvoke                         0x20000958   Data          12  ems.o(.data)
    DirPNAlter_L_invoke                      0x20000964   Data          12  ems.o(.data)
    DirPNAlter_R_invoke                      0x20000970   Data          12  ems.o(.data)
    DirPNAlter_RL_Invoke                     0x2000097c   Data          48  ems.o(.data)
    DiralternateInvoke                       0x200009ac   Data          24  ems.o(.data)
    Ems_Control                              0x200009c4   Data           4  ems.o(.data)
    StrengUpdateControl                      0x200009c8   Data           4  ems.o(.data)
    SystemCoreClock                          0x20000a54   Data           4  system_hc32l136.o(.data)
    MassageHandler                           0x20000ad8   Data          20  main.o(.bss)
    RxBufferHandler                          0x20000aec   Data         415  main.o(.bss)
    VoltageSampleBuff                        0x20000c8c   Data          24  main.o(.bss)
    HeatTemperatureBuff                      0x20000ca4   Data          24  main.o(.bss)
    ExtensiondetectBuff                      0x20000cbc   Data          24  main.o(.bss)
    ADC_Result_Array                         0x20000cd4   Data          40  adcsample.o(.bss)
    PwmProcessDataHandler                    0x20000cfc   Data          16  ems.o(.bss)
    NTCDataSmaple                            0x20000d0c   Data          64  ntctempsample.o(.bss)
    __initial_sp                             0x20001020   Data           0  startup_hc32l136.o(STACK)



==============================================================================

Memory Map of the image

  Image Entry point : 0x000000c1

  Load Region LR_IROM1 (Base: 0x00000000, Size: 0x0000a120, Max: 0x00010000, ABSOLUTE, COMPRESSED[0x00009ae0])

    Execution Region ER_IROM1 (Base: 0x00000000, Size: 0x00009708, Max: 0x00010000, ABSOLUTE)

    Base Addr    Size         Type   Attr      Idx    E Section Name        Object

    0x00000000   0x000000c0   Data   RO         2065    RESET               startup_hc32l136.o
    0x000000c0   0x00000000   Code   RO         4877  * .ARM.Collect$$$$00000000  mc_p.l(entry.o)
    0x000000c0   0x00000004   Code   RO         4904    .ARM.Collect$$$$00000001  mc_p.l(entry2.o)
    0x000000c4   0x00000004   Code   RO         4907    .ARM.Collect$$$$00000004  mc_p.l(entry5.o)
    0x000000c8   0x00000000   Code   RO         4909    .ARM.Collect$$$$00000008  mc_p.l(entry7b.o)
    0x000000c8   0x00000000   Code   RO         4911    .ARM.Collect$$$$0000000A  mc_p.l(entry8b.o)
    0x000000c8   0x00000008   Code   RO         4912    .ARM.Collect$$$$0000000B  mc_p.l(entry9a.o)
    0x000000d0   0x00000000   Code   RO         4914    .ARM.Collect$$$$0000000D  mc_p.l(entry10a.o)
    0x000000d0   0x00000000   Code   RO         4916    .ARM.Collect$$$$0000000F  mc_p.l(entry11a.o)
    0x000000d0   0x00000004   Code   RO         4905    .ARM.Collect$$$$00002712  mc_p.l(entry2.o)
    0x000000d4   0x0000003c   Code   RO         2066    .text               startup_hc32l136.o
    0x00000110   0x0000002c   Code   RO         4880    .text               mc_p.l(uidiv.o)
    0x0000013c   0x00000028   Code   RO         4882    .text               mc_p.l(idiv.o)
    0x00000164   0x00000024   Code   RO         4884    .text               mc_p.l(memcpya.o)
    0x00000188   0x000000b2   Code   RO         4890    .text               mf_p.l(fadd.o)
    0x0000023a   0x0000007a   Code   RO         4892    .text               mf_p.l(fmul.o)
    0x000002b4   0x0000007c   Code   RO         4894    .text               mf_p.l(fdiv.o)
    0x00000330   0x0000000e   Code   RO         4896    .text               mf_p.l(ffltui.o)
    0x0000033e   0x00000028   Code   RO         4898    .text               mf_p.l(ffixui.o)
    0x00000366   0x00000002   PAD
    0x00000368   0x00000014   Code   RO         4900    .text               mf_p.l(cfcmple.o)
    0x0000037c   0x00000014   Code   RO         4902    .text               mf_p.l(cfrcmple.o)
    0x00000390   0x00000000   Code   RO         4918    .text               mc_p.l(iusefp.o)
    0x00000390   0x00000082   Code   RO         4919    .text               mf_p.l(fepilogue.o)
    0x00000412   0x00000002   PAD
    0x00000414   0x00000024   Code   RO         4921    .text               mc_p.l(init.o)
    0x00000438   0x00000056   Code   RO         4931    .text               mc_p.l(__dczerorl2.o)
    0x0000048e   0x00000002   PAD
    0x00000490   0x00000184   Code   RO          659    i.AdcSampleInit     adcsample.o
    0x00000614   0x00000120   Code   RO          323    i.AdcSampleTask     main.o
    0x00000734   0x00000030   Code   RO         2079    i.Adc_ConfigDmaTrig  adc.o
    0x00000764   0x000001b8   Code   RO         2085    i.Adc_ConfigSqrChannel  adc.o
    0x0000091c   0x00000080   Code   RO         2086    i.Adc_ConfigSqrMode  adc.o
    0x0000099c   0x00000014   Code   RO         2090    i.Adc_Enable        adc.o
    0x000009b0   0x00000090   Code   RO         2099    i.Adc_Init          adc.o
    0x00000a40   0x00000014   Code   RO         2110    i.Adc_SQR_Start     adc.o
    0x00000a54   0x00000054   Code   RO         2113    i.Adc_SetVref       adc.o
    0x00000aa8   0x0000002c   Code   RO         4260    i.AdtEnableNvic     adt.o
    0x00000ad4   0x000001d8   Code   RO         4262    i.Adt_CHxXPortConfig  adt.o
    0x00000cac   0x00000088   Code   RO         4307    i.Adt_Init          adt.o
    0x00000d34   0x00000040   Code   RO         4311    i.Adt_SetCompareValue  adt.o
    0x00000d74   0x0000001c   Code   RO         4315    i.Adt_SetPeriod     adt.o
    0x00000d90   0x00000024   Code   RO         4319    i.Adt_StartCount    adt.o
    0x00000db4   0x00000040   Code   RO          510    i.Battery_Chg_Compl_Status_Check  key.o
    0x00000df4   0x00000026   Code   RO          511    i.Battery_Chg_Compl_Status_Init  key.o
    0x00000e1a   0x0000000e   Code   RO          512    i.Battery_Chg_Status_Disable_IRQ  key.o
    0x00000e28   0x00000026   Code   RO          514    i.Battery_Chg_Status_Pin_Init  key.o
    0x00000e4e   0x00000002   PAD
    0x00000e50   0x00000094   Code   RO          515    i.Battery_Chg_Status_Pin_Scan  key.o
    0x00000ee4   0x0000006c   Code   RO          324    i.Battery_Status_Check  main.o
    0x00000f50   0x000001e4   Code   RO          708    i.BoostVoltageControl  ems.o
    0x00001134   0x0000001a   Code   RO          106    i.Boost_Pwm         timehandler.o
    0x0000114e   0x0000000a   Code   RO          107    i.Boost_Start       timehandler.o
    0x00001158   0x0000004c   Code   RO         2346    i.Bt_ClearAllIntFlag  bt.o
    0x000011a4   0x0000001c   Code   RO         2347    i.Bt_ClearIntFlag   bt.o
    0x000011c0   0x0000001c   Code   RO         2348    i.Bt_GetIntFlag     bt.o
    0x000011dc   0x00000030   Code   RO         2364    i.Bt_M23_ARRSet     bt.o
    0x0000120c   0x00000020   Code   RO         2369    i.Bt_M23_Cnt16Set   bt.o
    0x0000122c   0x00000038   Code   RO         2373    i.Bt_M23_EnPWM_Output  bt.o
    0x00001264   0x0000001c   Code   RO         2384    i.Bt_M23_Run        bt.o
    0x00001280   0x00000020   Code   RO         2385    i.Bt_M23_SetValidPeriod  bt.o
    0x000012a0   0x0000007c   Code   RO         2395    i.Bt_Mode23_EnableIrq  bt.o
    0x0000131c   0x0000026c   Code   RO         2396    i.Bt_Mode23_Init    bt.o
    0x00001588   0x00000046   Code   RO          325    i.ClkInit24M        main.o
    0x000015ce   0x0000002a   Code   RO         1110    i.CompareParaSize   util.o
    0x000015f8   0x00000002   Code   RO          243    i.CtsIntCallBack    uarthandler.o
    0x000015fa   0x00000024   Code   RO          661    i.Delay_us          adcsample.o
    0x0000161e   0x00000002   PAD
    0x00001620   0x00000034   Code   RO          327    i.DeviceDataInit    main.o
    0x00001654   0x0000000c   Code   RO          662    i.DmaContIrqCallback  adcsample.o
    0x00001660   0x0000006c   Code   RO         4007    i.Dma_ConfigIrq     dmac.o
    0x000016cc   0x00000018   Code   RO         4017    i.Dma_Enable        dmac.o
    0x000016e4   0x00000040   Code   RO         4019    i.Dma_EnableChannel  dmac.o
    0x00001724   0x0000003c   Code   RO         4021    i.Dma_EnableChannelIrq  dmac.o
    0x00001760   0x000000f8   Code   RO         4028    i.Dma_IRQHandler    dmac.o
    0x00001858   0x00000298   Code   RO         4029    i.Dma_InitChannel   dmac.o
    0x00001af0   0x0000002c   Code   RO         4042    i.Dma_Start         dmac.o
    0x00001b1c   0x000003ec   Code   RO          709    i.EMSControlHandler  ems.o
    0x00001f08   0x00000010   Code   RO          328    i.EMSTimeInit       main.o
    0x00001f18   0x00000040   Code   RO          516    i.EMS_Port_Check_Pin_Init  key.o
    0x00001f58   0x000000b4   Code   RO         1234    i.EMS_Port_Init     ems_port.o
    0x0000200c   0x00000088   Code   RO          519    i.EMS_Port_Pin_Status  key.o
    0x00002094   0x00000040   Code   RO          710    i.EMS_PwmControl    ems.o
    0x000020d4   0x00000008   Code   RO          329    i.EMS_Status_Check  main.o
    0x000020dc   0x00000278   Code   RO         1235    i.EmsABAuto_And_CDAuto_PN  ems_port.o
    0x00002354   0x00000278   Code   RO         1236    i.EmsABC_T_D_PN     ems_port.o
    0x000025cc   0x00000278   Code   RO         1237    i.EmsABD_T_C_PN     ems_port.o
    0x00002844   0x00000278   Code   RO         1238    i.EmsACAutO_And_BDAuto_PN  ems_port.o
    0x00002abc   0x00000278   Code   RO         1239    i.EmsACD_T_B_PN     ems_port.o
    0x00002d34   0x00000278   Code   RO         1240    i.EmsADAuto_And_BCAuto_PN  ems_port.o
    0x00002fac   0x000001f8   Code   RO         1241    i.EmsA_T_B_And_CDAuto_PN  ems_port.o
    0x000031a4   0x0000004c   Code   RO         1242    i.EmsA_T_B_And_C_T_D  ems_port.o
    0x000031f0   0x0000004c   Code   RO         1243    i.EmsA_T_B_And_D_T_C  ems_port.o
    0x0000323c   0x000001f8   Code   RO         1244    i.EmsA_T_C_And_BDAuto_PN  ems_port.o
    0x00003434   0x00000176   Code   RO         1245    i.EmsA_T_C_And_BD_No_PN  ems_port.o
    0x000035aa   0x0000004c   Code   RO         1246    i.EmsA_T_C_And_B_T_D  ems_port.o
    0x000035f6   0x0000004c   Code   RO         1247    i.EmsA_T_C_And_D_T_B  ems_port.o
    0x00003642   0x000001f8   Code   RO         1248    i.EmsA_T_D_And_BCAuto_PN  ems_port.o
    0x0000383a   0x00000178   Code   RO         1249    i.EmsA_T_D_And_BC_No_PN  ems_port.o
    0x000039b2   0x0000004c   Code   RO         1250    i.EmsA_T_D_And_B_T_C  ems_port.o
    0x000039fe   0x0000004c   Code   RO         1251    i.EmsA_T_D_And_C_T_B  ems_port.o
    0x00003a4a   0x00000278   Code   RO         1252    i.EmsBCD_T_A_PN     ems_port.o
    0x00003cc2   0x000001f8   Code   RO         1253    i.EmsB_T_A_And_CDAuto_PN  ems_port.o
    0x00003eba   0x00000178   Code   RO         1254    i.EmsB_T_A_And_CD_No_PN  ems_port.o
    0x00004032   0x0000004c   Code   RO         1255    i.EmsB_T_A_And_C_T_D  ems_port.o
    0x0000407e   0x0000004c   Code   RO         1256    i.EmsB_T_A_And_D_T_C  ems_port.o
    0x000040ca   0x000001f6   Code   RO         1257    i.EmsB_T_C_And_ADAuto_PN  ems_port.o
    0x000042c0   0x00000178   Code   RO         1258    i.EmsB_T_C_And_AD_No_PN  ems_port.o
    0x00004438   0x0000004c   Code   RO         1259    i.EmsB_T_C_And_A_T_D  ems_port.o
    0x00004484   0x0000004c   Code   RO         1260    i.EmsB_T_C_And_D_T_A  ems_port.o
    0x000044d0   0x0000017a   Code   RO         1261    i.EmsB_T_D_And_ACAuto_PN  ems_port.o
    0x0000464a   0x00000176   Code   RO         1262    i.EmsB_T_D_And_AC_No_PN  ems_port.o
    0x000047c0   0x0000004c   Code   RO         1263    i.EmsB_T_D_And_A_T_C  ems_port.o
    0x0000480c   0x0000004c   Code   RO         1264    i.EmsB_T_D_And_C_T_A  ems_port.o
    0x00004858   0x000001f8   Code   RO         1265    i.EmsC_T_A_And_BDAuto_PN  ems_port.o
    0x00004a50   0x0000002c   Code   RO         1266    i.EmsC_T_A_And_BD_No  ems_port.o
    0x00004a7c   0x00000178   Code   RO         1267    i.EmsC_T_A_And_BD_No_PN  ems_port.o
    0x00004bf4   0x0000004c   Code   RO         1268    i.EmsC_T_A_And_B_T_D  ems_port.o
    0x00004c40   0x0000004c   Code   RO         1269    i.EmsC_T_A_And_D_T_B  ems_port.o
    0x00004c8c   0x000001f8   Code   RO         1270    i.EmsC_T_B_And_ADAuto_PN  ems_port.o
    0x00004e84   0x0000002c   Code   RO         1271    i.EmsC_T_B_And_AD_No  ems_port.o
    0x00004eb0   0x00000178   Code   RO         1272    i.EmsC_T_B_And_AD_No_PN  ems_port.o
    0x00005028   0x0000004c   Code   RO         1273    i.EmsC_T_B_And_A_T_D  ems_port.o
    0x00005074   0x0000004c   Code   RO         1274    i.EmsC_T_B_And_D_T_A  ems_port.o
    0x000050c0   0x000001f8   Code   RO         1275    i.EmsC_T_D_And_ABAuto_PN  ems_port.o
    0x000052b8   0x0000002c   Code   RO         1276    i.EmsC_T_D_And_AB_No  ems_port.o
    0x000052e4   0x00000178   Code   RO         1277    i.EmsC_T_D_And_AB_No_PN  ems_port.o
    0x0000545c   0x0000004c   Code   RO         1278    i.EmsC_T_D_And_A_T_B  ems_port.o
    0x000054a8   0x0000004c   Code   RO         1279    i.EmsC_T_D_And_B_T_A  ems_port.o
    0x000054f4   0x000001f8   Code   RO         1280    i.EmsD_T_A_And_BC_AutO_PN  ems_port.o
    0x000056ec   0x00000178   Code   RO         1281    i.EmsD_T_A_And_BC_No_PN  ems_port.o
    0x00005864   0x0000004c   Code   RO         1282    i.EmsD_T_A_And_B_T_C  ems_port.o
    0x000058b0   0x0000004c   Code   RO         1283    i.EmsD_T_A_And_C_T_B  ems_port.o
    0x000058fc   0x00000178   Code   RO         1284    i.EmsD_T_B_And_AC_No_PN  ems_port.o
    0x00005a74   0x00000178   Code   RO         1285    i.EmsD_T_C_And_AB_No_PN  ems_port.o
    0x00005bec   0x0000006c   Code   RO          711    i.Ems_2DParaInit    ems.o
    0x00005c58   0x0000006c   Code   RO          712    i.Ems_3DParaInit    ems.o
    0x00005cc4   0x0000008c   Code   RO         1286    i.Ems_AB_And_CD_Discharge  ems_port.o
    0x00005d50   0x0000008c   Code   RO         1287    i.Ems_AB_And_CD_Four  ems_port.o
    0x00005ddc   0x00000098   Code   RO         1289    i.Ems_AToB_And_Ems_CToD_PNAlter_N  ems_port.o
    0x00005e74   0x00000098   Code   RO         1290    i.Ems_AToB_And_Ems_CToD_PNAlter_P  ems_port.o
    0x00005f0c   0x0000004c   Code   RO         1291    i.Ems_AToB_Ems_CToD_FS_N  ems_port.o
    0x00005f58   0x0000004c   Code   RO         1292    i.Ems_AToB_Ems_CToD_FS_P  ems_port.o
    0x00005fa4   0x00000174   Code   RO         1297    i.Ems_A_T_B_And_CD_No_PN  ems_port.o
    0x00006118   0x0000004c   Code   RO         1298    i.Ems_A_To_Ems_B_Double  ems_port.o
    0x00006164   0x0000002c   Code   RO         1299    i.Ems_A_To_Ems_B_FS_N  ems_port.o
    0x00006190   0x0000002c   Code   RO         1300    i.Ems_A_To_Ems_B_FS_P  ems_port.o
    0x000061bc   0x00000058   Code   RO         1303    i.Ems_A_To_Ems_B_PNAlter_N  ems_port.o
    0x00006214   0x00000058   Code   RO         1304    i.Ems_A_To_Ems_B_PNAlter_P  ems_port.o
    0x0000626c   0x0000002c   Code   RO         1305    i.Ems_A_To_Ems_B_Single_N  ems_port.o
    0x00006298   0x0000002c   Code   RO         1306    i.Ems_A_To_Ems_B_Single_P  ems_port.o
    0x000062c4   0x0000001c   Code   RO          330    i.Ems_CallTask      main.o
    0x000062e0   0x00000220   Code   RO          331    i.Ems_Control_F     main.o
    0x00006500   0x00000068   Code   RO          713    i.Ems_IDLEParaInit  ems.o
    0x00006568   0x00000034   Code   RO          332    i.Ems_Massage_Mode_update  main.o
    0x0000659c   0x00000014   Code   RO          714    i.Ems_Output_Close  ems.o
    0x000065b0   0x00000040   Code   RO          715    i.Ems_ParaInit      ems.o
    0x000065f0   0x0000000c   Code   RO          716    i.Ems_Start         ems.o
    0x000065fc   0x00000080   Code   RO         3056    i.EnableNvic        interrupts_hc32l136.o
    0x0000667c   0x00000002   Code   RO          244    i.ErrIntCallback    uarthandler.o
    0x0000667e   0x00000010   Code   RO          520    i.ExtTrigInterrupteRouseDisable  key.o
    0x0000668e   0x00000002   PAD
    0x00006690   0x0000009c   Code   RO          333    i.ExternBoardCheckHandler  main.o
    0x0000672c   0x00000068   Code   RO         2789    i.Flash_WaitCycle   flash.o
    0x00006794   0x0000001c   Code   RO         2881    i.Gpio_ClearIrq     gpio.o
    0x000067b0   0x0000001c   Code   RO         2882    i.Gpio_ClrIO        gpio.o
    0x000067cc   0x00000018   Code   RO         2884    i.Gpio_DisableIrq   gpio.o
    0x000067e4   0x00000018   Code   RO         2885    i.Gpio_EnableIrq    gpio.o
    0x000067fc   0x00000014   Code   RO         2887    i.Gpio_GetInputIO   gpio.o
    0x00006810   0x00000014   Code   RO         2888    i.Gpio_GetIrqStatus  gpio.o
    0x00006824   0x00000088   Code   RO          522    i.Gpio_IRQHandler   key.o
    0x000068ac   0x0000014c   Code   RO         2889    i.Gpio_Init         gpio.o
    0x000069f8   0x00000014   Code   RO         2891    i.Gpio_SetAfMode    gpio.o
    0x00006a0c   0x0000001c   Code   RO         2892    i.Gpio_SetAnalogMode  gpio.o
    0x00006a28   0x0000001c   Code   RO         2894    i.Gpio_SetIO        gpio.o
    0x00006a44   0x000000bc   Code   RO          523    i.HallSwitchStatusScan  key.o
    0x00006b00   0x00000028   Code   RO          525    i.HallSwitchTrigTouchKeyInit  key.o
    0x00006b28   0x0000000e   Code   RO          526    i.HallSwitchTrigTouchKeyInitDisable  key.o
    0x00006b36   0x00000010   Code   RO         3057    i.HardFault_Handler  interrupts_hc32l136.o
    0x00006b46   0x0000003c   Code   RO          334    i.HardWareInit      main.o
    0x00006b82   0x0000000c   Code   RO          335    i.Heat_Temperature_Close  main.o
    0x00006b8e   0x00000002   PAD
    0x00006b90   0x0000005c   Code   RO          336    i.Heat_temperature_Control  main.o
    0x00006bec   0x00000036   Code   RO         1992    i.Heater_Init       ledmotor.o
    0x00006c22   0x0000000a   Code   RO         3058    i.IRQ000_Handler    interrupts_hc32l136.o
    0x00006c2c   0x0000000a   Code   RO         3059    i.IRQ001_Handler    interrupts_hc32l136.o
    0x00006c36   0x0000000a   Code   RO         3060    i.IRQ002_Handler    interrupts_hc32l136.o
    0x00006c40   0x0000000a   Code   RO         3061    i.IRQ003_Handler    interrupts_hc32l136.o
    0x00006c4a   0x0000000a   Code   RO         3062    i.IRQ004_Handler    interrupts_hc32l136.o
    0x00006c54   0x0000000a   Code   RO         3063    i.IRQ005_Handler    interrupts_hc32l136.o
    0x00006c5e   0x0000000a   Code   RO         3064    i.IRQ006_Handler    interrupts_hc32l136.o
    0x00006c68   0x0000000a   Code   RO         3065    i.IRQ007_Handler    interrupts_hc32l136.o
    0x00006c72   0x0000000a   Code   RO         3066    i.IRQ008_Handler    interrupts_hc32l136.o
    0x00006c7c   0x0000000a   Code   RO         3067    i.IRQ009_Handler    interrupts_hc32l136.o
    0x00006c86   0x0000000a   Code   RO         3068    i.IRQ010_Handler    interrupts_hc32l136.o
    0x00006c90   0x0000000a   Code   RO         3069    i.IRQ011_Handler    interrupts_hc32l136.o
    0x00006c9a   0x0000000a   Code   RO         3070    i.IRQ012_Handler    interrupts_hc32l136.o
    0x00006ca4   0x0000000a   Code   RO         3071    i.IRQ013_Handler    interrupts_hc32l136.o
    0x00006cae   0x0000000a   Code   RO         3072    i.IRQ014_Handler    interrupts_hc32l136.o
    0x00006cb8   0x0000000a   Code   RO         3073    i.IRQ015_Handler    interrupts_hc32l136.o
    0x00006cc2   0x0000000a   Code   RO         3074    i.IRQ016_Handler    interrupts_hc32l136.o
    0x00006ccc   0x0000000a   Code   RO         3075    i.IRQ017_Handler    interrupts_hc32l136.o
    0x00006cd6   0x0000000a   Code   RO         3076    i.IRQ018_Handler    interrupts_hc32l136.o
    0x00006ce0   0x0000000a   Code   RO         3077    i.IRQ019_Handler    interrupts_hc32l136.o
    0x00006cea   0x0000000a   Code   RO         3078    i.IRQ020_Handler    interrupts_hc32l136.o
    0x00006cf4   0x0000000a   Code   RO         3079    i.IRQ021_Handler    interrupts_hc32l136.o
    0x00006cfe   0x0000000a   Code   RO         3080    i.IRQ022_Handler    interrupts_hc32l136.o
    0x00006d08   0x0000000a   Code   RO         3081    i.IRQ023_Handler    interrupts_hc32l136.o
    0x00006d12   0x0000000a   Code   RO         3082    i.IRQ024_Handler    interrupts_hc32l136.o
    0x00006d1c   0x0000000a   Code   RO         3083    i.IRQ025_Handler    interrupts_hc32l136.o
    0x00006d26   0x0000000a   Code   RO         3084    i.IRQ026_Handler    interrupts_hc32l136.o
    0x00006d30   0x0000000a   Code   RO         3085    i.IRQ027_Handler    interrupts_hc32l136.o
    0x00006d3a   0x0000000a   Code   RO         3086    i.IRQ028_Handler    interrupts_hc32l136.o
    0x00006d44   0x0000000a   Code   RO         3087    i.IRQ029_Handler    interrupts_hc32l136.o
    0x00006d4e   0x0000000a   Code   RO         3088    i.IRQ030_Handler    interrupts_hc32l136.o
    0x00006d58   0x0000000a   Code   RO         3089    i.IRQ031_Handler    interrupts_hc32l136.o
    0x00006d62   0x00000022   Code   RO          527    i.KeyDisableIRQ     key.o
    0x00006d84   0x00000208   Code   RO          337    i.KeyHandler        main.o
    0x00006f8c   0x00000224   Code   RO          338    i.LED_Status_Control  main.o
    0x000071b0   0x00000030   Code   RO         4705    i.LPUartGetInternDataPtr  lpuart.o
    0x000071e0   0x00000070   Code   RO         4706    i.LPUart_CalScnt    lpuart.o
    0x00007250   0x00000074   Code   RO         4708    i.LPUart_ClrStatus  lpuart.o
    0x000072c4   0x00000088   Code   RO         4711    i.LPUart_EnableFunc  lpuart.o
    0x0000734c   0x0000009a   Code   RO         4712    i.LPUart_EnableIrq  lpuart.o
    0x000073e6   0x0000007a   Code   RO         4718    i.LPUart_Init       lpuart.o
    0x00007460   0x00000054   Code   RO         4720    i.LPUart_SelSclk    lpuart.o
    0x000074b4   0x00000018   Code   RO         4722    i.LPUart_SetBaud    lpuart.o
    0x000074cc   0x0000002c   Code   RO         4723    i.LPUart_SetClkDiv  lpuart.o
    0x000074f8   0x00000030   Code   RO         4724    i.LPUart_SetMMDOrCk  lpuart.o
    0x00007528   0x00000030   Code   RO         4725    i.LPUart_SetMode    lpuart.o
    0x00007558   0x00000048   Code   RO         4726    i.LPUart_SetMultiMode  lpuart.o
    0x000075a0   0x00000046   Code   RO         4729    i.LPUart_SetStopBit  lpuart.o
    0x000075e6   0x00000036   Code   RO         1993    i.Led_1_Init        ledmotor.o
    0x0000761c   0x00000002   Code   RO          339    i.LowPowerHandler   main.o
    0x0000761e   0x00000002   PAD
    0x00007620   0x000000ec   Code   RO          718    i.Massage3DModelPwmCHandler  ems.o
    0x0000770c   0x00000258   Code   RO          719    i.MassagePwmCHandler  ems.o
    0x00007964   0x00000250   Code   RO          720    i.MassagePwmIdleHandler  ems.o
    0x00007bb4   0x00000006   Code   RO          721    i.ModifyOne         ems.o
    0x00007bba   0x00000006   Code   RO          722    i.ModifyTwo         ems.o
    0x00007bc0   0x00000036   Code   RO         1994    i.Motor_Init        ledmotor.o
    0x00007bf6   0x00000002   PAD
    0x00007bf8   0x0000020c   Code   RO          340    i.Motor_vibration_Control  main.o
    0x00007e04   0x00000078   Code   RO         1971    i.NTCSampleDataHandler  ntctempsample.o
    0x00007e7c   0x00000002   Code   RO          245    i.PErrIntCallBack   uarthandler.o
    0x00007e7e   0x00000002   PAD
    0x00007e80   0x00000020   Code   RO          246    i.RxIntCallback     uarthandler.o
    0x00007ea0   0x000000ac   Code   RO         1111    i.SampleFilterFloatHandler  util.o
    0x00007f4c   0x00000074   Code   RO         1112    i.SampleFilterHandler  util.o
    0x00007fc0   0x00000114   Code   RO          342    i.SoftTimeTask      main.o
    0x000080d4   0x00000008   Code   RO          343    i.SoftTimerCount    main.o
    0x000080dc   0x00000174   Code   RO         3857    i.Sysctrl_GetHClkFreq  sysctrl.o
    0x00008250   0x00000020   Code   RO         3858    i.Sysctrl_GetPClkFreq  sysctrl.o
    0x00008270   0x0000003c   Code   RO         3865    i.Sysctrl_SetPeripheralGate  sysctrl.o
    0x000082ac   0x0000009c   Code   RO         3866    i.Sysctrl_SetRCHTrim  sysctrl.o
    0x00008348   0x0000002c   Code   RO         3873    i.Sysctrl_SysClkSwitch  sysctrl.o
    0x00008374   0x00000010   Code   RO         2024    i.SystemCoreClockUpdate  system_hc32l136.o
    0x00008384   0x00000028   Code   RO         2025    i.SystemInit        system_hc32l136.o
    0x000083ac   0x00000038   Code   RO          110    i.Tim2Int           timehandler.o
    0x000083e4   0x00000014   Code   RO         3283    i.Tim3_ClearIntFlag  timer3.o
    0x000083f8   0x00000018   Code   RO         3284    i.Tim3_GetIntFlag   timer3.o
    0x00008410   0x00000030   Code   RO         3301    i.Tim3_M23_ARRSet   timer3.o
    0x00008440   0x000000a8   Code   RO         3304    i.Tim3_M23_CCR_Set  timer3.o
    0x000084e8   0x0000001c   Code   RO         3306    i.Tim3_M23_Cnt16Set  timer3.o
    0x00008504   0x00000038   Code   RO         3310    i.Tim3_M23_EnPWM_Output  timer3.o
    0x0000853c   0x000002b4   Code   RO         3320    i.Tim3_M23_PortOutput_Config  timer3.o
    0x000087f0   0x00000018   Code   RO         3321    i.Tim3_M23_Run      timer3.o
    0x00008808   0x0000001c   Code   RO         3322    i.Tim3_M23_SetValidPeriod  timer3.o
    0x00008824   0x000000cc   Code   RO         3333    i.Tim3_Mode23_Init  timer3.o
    0x000088f0   0x00000054   Code   RO         2397    i.Tim_IRQHandler    bt.o
    0x00008944   0x0000001c   Code   RO          111    i.Time0IntCallback  timehandler.o
    0x00008960   0x0000000e   Code   RO          112    i.Time3Breathing_Light_Duty  timehandler.o
    0x0000896e   0x00000014   Code   RO          113    i.Time3IntCallback  timehandler.o
    0x00008982   0x000000c6   Code   RO          114    i.TimeBoostPwmInit  timehandler.o
    0x00008a48   0x000000ac   Code   RO          115    i.TimestampInit     timehandler.o
    0x00008af4   0x00000022   Code   RO          116    i.TimestampStart    timehandler.o
    0x00008b16   0x00000018   Code   RO          118    i.TimestampUpdateFreq  timehandler.o
    0x00008b2e   0x00000002   PAD
    0x00008b30   0x00000028   Code   RO          247    i.TxIntCallback     uarthandler.o
    0x00008b58   0x00000080   Code   RO          248    i.UartDataParseHandler  uarthandler.o
    0x00008bd8   0x00000030   Code   RO         3692    i.UartGetInternDataPtr  uart.o
    0x00008c08   0x00000108   Code   RO          249    i.UartInit          uarthandler.o
    0x00008d10   0x0000003e   Code   RO          251    i.Uart_PortInit     uarthandler.o
    0x00008d4e   0x0000001e   Code   RO         3706    i.Uart_ReceiveData  uart.o
    0x00008d6c   0x00000098   Code   RO          119    i.Update2Time       timehandler.o
    0x00008e04   0x00000010   Code   RO          723    i._DirABAuto_And_CDAuto_PN  ems.o
    0x00008e14   0x00000010   Code   RO          724    i._DirABC_T_D_PN    ems.o
    0x00008e24   0x00000010   Code   RO          725    i._DirABD_T_C_PN    ems.o
    0x00008e34   0x0000000e   Code   RO          726    i._DirAB_And_CD_DisCharge  ems.o
    0x00008e42   0x00000002   Code   RO          727    i._DirAB_And_CD_IDLE  ems.o
    0x00008e44   0x00000010   Code   RO          728    i._DirACAutO_And_BDAut0_PN  ems.o
    0x00008e54   0x00000010   Code   RO          729    i._DirACD_T_B_PN    ems.o
    0x00008e64   0x00000010   Code   RO          730    i._DirADAuto_And_BCAuto_PN  ems.o
    0x00008e74   0x00000010   Code   RO          731    i._DirA_T_B_And_CDAuto_PN  ems.o
    0x00008e84   0x0000001c   Code   RO          732    i._DirA_T_B_And_CD_No  ems.o
    0x00008ea0   0x00000010   Code   RO          733    i._DirA_T_B_And_CD_No_PN  ems.o
    0x00008eb0   0x0000000e   Code   RO          734    i._DirA_T_B_And_C_T_D  ems.o
    0x00008ebe   0x0000000e   Code   RO          735    i._DirA_T_B_And_D_T_C  ems.o
    0x00008ecc   0x00000010   Code   RO          736    i._DirA_T_C_And_BDAuto_PN  ems.o
    0x00008edc   0x00000010   Code   RO          737    i._DirA_T_C_And_BD_No  ems.o
    0x00008eec   0x00000010   Code   RO          738    i._DirA_T_C_And_BD_No_PN  ems.o
    0x00008efc   0x0000000e   Code   RO          739    i._DirA_T_C_And_B_T_D  ems.o
    0x00008f0a   0x0000000e   Code   RO          740    i._DirA_T_C_And_D_T_B  ems.o
    0x00008f18   0x00000010   Code   RO          741    i._DirA_T_D_And_BCAuto_PN  ems.o
    0x00008f28   0x00000010   Code   RO          742    i._DirA_T_D_And_BC_No  ems.o
    0x00008f38   0x00000010   Code   RO          743    i._DirA_T_D_And_BC_No_PN  ems.o
    0x00008f48   0x0000000e   Code   RO          744    i._DirA_T_D_And_B_T_C  ems.o
    0x00008f56   0x0000000e   Code   RO          745    i._DirA_T_D_And_C_T_B  ems.o
    0x00008f64   0x00000010   Code   RO          746    i._DirB_T_A_And_CDAuto_PN  ems.o
    0x00008f74   0x0000000e   Code   RO          747    i._DirB_T_A_And_CD_No  ems.o
    0x00008f82   0x00000010   Code   RO          748    i._DirB_T_A_And_CD_No_PN  ems.o
    0x00008f92   0x0000000e   Code   RO          749    i._DirB_T_A_And_C_T_D  ems.o
    0x00008fa0   0x0000000e   Code   RO          750    i._DirB_T_A_And_D_T_C  ems.o
    0x00008fae   0x00000010   Code   RO          751    i._DirB_T_C_And_ADAuto_PN  ems.o
    0x00008fbe   0x00000010   Code   RO          752    i._DirB_T_C_And_AD_No  ems.o
    0x00008fce   0x00000010   Code   RO          753    i._DirB_T_C_And_AD_No_PN  ems.o
    0x00008fde   0x0000000e   Code   RO          754    i._DirB_T_C_And_A_T_D  ems.o
    0x00008fec   0x0000000e   Code   RO          755    i._DirB_T_C_And_D_T_A  ems.o
    0x00008ffa   0x00000010   Code   RO          756    i._DirB_T_D_And_ACAuto_PN  ems.o
    0x0000900a   0x00000010   Code   RO          757    i._DirB_T_D_And_AC_No  ems.o
    0x0000901a   0x00000010   Code   RO          758    i._DirB_T_D_And_AC_No_PN  ems.o
    0x0000902a   0x0000000e   Code   RO          759    i._DirB_T_D_And_A_T_C  ems.o
    0x00009038   0x0000000e   Code   RO          760    i._DirB_T_D_And_C_T_A  ems.o
    0x00009046   0x00000010   Code   RO          761    i._DirCBD_T_A_PN    ems.o
    0x00009056   0x00000010   Code   RO          762    i._DirC_T_A_And_BDAuto_PN  ems.o
    0x00009066   0x0000000e   Code   RO          763    i._DirC_T_A_And_BD_No  ems.o
    0x00009074   0x00000010   Code   RO          764    i._DirC_T_A_And_BD_No_PN  ems.o
    0x00009084   0x0000000e   Code   RO          765    i._DirC_T_A_And_B_T_D  ems.o
    0x00009092   0x0000000e   Code   RO          766    i._DirC_T_A_And_D_T_B  ems.o
    0x000090a0   0x00000010   Code   RO          767    i._DirC_T_B_And_ADAuto_PN  ems.o
    0x000090b0   0x0000000e   Code   RO          768    i._DirC_T_B_And_AD_No  ems.o
    0x000090be   0x00000010   Code   RO          769    i._DirC_T_B_And_AD_No_PN  ems.o
    0x000090ce   0x0000000e   Code   RO          770    i._DirC_T_B_And_A_T_D  ems.o
    0x000090dc   0x0000000e   Code   RO          771    i._DirC_T_B_And_D_T_A  ems.o
    0x000090ea   0x00000010   Code   RO          772    i._DirC_T_D_And_ABAuto_PN  ems.o
    0x000090fa   0x0000000e   Code   RO          773    i._DirC_T_D_And_AB_No  ems.o
    0x00009108   0x00000010   Code   RO          774    i._DirC_T_D_And_AB_No_PN  ems.o
    0x00009118   0x0000000e   Code   RO          775    i._DirC_T_D_And_A_T_B  ems.o
    0x00009126   0x0000000e   Code   RO          776    i._DirC_T_D_And_B_T_A  ems.o
    0x00009134   0x00000010   Code   RO          777    i._DirD_T_A_And_BC_AutO_PN  ems.o
    0x00009144   0x00000010   Code   RO          778    i._DirD_T_A_And_BC_No_PN  ems.o
    0x00009154   0x0000000e   Code   RO          779    i._DirD_T_A_And_B_T_C  ems.o
    0x00009162   0x00000010   Code   RO          780    i._DirD_T_A_And_CB_No  ems.o
    0x00009172   0x0000000e   Code   RO          781    i._DirD_T_A_And_C_T_B  ems.o
    0x00009180   0x00000010   Code   RO          782    i._DirD_T_B_And_AC_No_PN  ems.o
    0x00009190   0x00000010   Code   RO          783    i._DirD_T_C_And_AB_No_PN  ems.o
    0x000091a0   0x000000d4   Code   RO         2907    i._GpioEnableIrq    gpio.o
    0x00009274   0x00000018   Code   RO         3876    i._SysctrlUnlock    sysctrl.o
    0x0000928c   0x0000001c   Code   RO          465    i.__ARM_common_switch8  main.o
    0x000092a8   0x00000018   Code   RO         4324    i.__NVIC_ClearPendingIRQ  adt.o
    0x000092c0   0x00000078   Code   RO         3090    i.__NVIC_SetPriority  interrupts_hc32l136.o
    0x00009338   0x00000078   Code   RO         4325    i.__NVIC_SetPriority  adt.o
    0x000093b0   0x0000000e   Code   RO         4925    i.__scatterload_copy  mc_p.l(handlers.o)
    0x000093be   0x00000002   Code   RO         4926    i.__scatterload_null  mc_p.l(handlers.o)
    0x000093c0   0x0000000e   Code   RO         4927    i.__scatterload_zeroinit  mc_p.l(handlers.o)
    0x000093ce   0x00000002   PAD
    0x000093d0   0x000000c8   Code   RO          121    i.breathing_LightInit  timehandler.o
    0x00009498   0x00000020   Code   RO         2681    i.ddl_memclr        ddl.o
    0x000094b8   0x00000060   Code   RO         2683    i.delay10us         ddl.o
    0x00009518   0x00000048   Code   RO         2685    i.delay1us          ddl.o
    0x00009560   0x000000cc   Code   RO          531    i.keyScan           key.o
    0x0000962c   0x00000020   Code   RO          345    i.key_Delay_Init    main.o
    0x0000964c   0x00000050   Code   RO          346    i.main              main.o
    0x0000969c   0x00000030   Code   RO          347    i.peripheralInit    main.o
    0x000096cc   0x00000004   Data   RO          349    .constdata          main.o
    0x000096d0   0x00000018   Data   RO         3877    .constdata          sysctrl.o
    0x000096e8   0x00000020   Data   RO         4923    Region$$Table       anon$$obj.o


    Execution Region RW_IRAM1 (Base: 0x200000c0, Size: 0x00000f60, Max: 0x00001f40, ABSOLUTE, COMPRESSED[0x000003d8])

    Base Addr    Size         Type   Attr      Idx    E Section Name        Object

    0x200000c0   0x00000035   Data   RW          252    .data               uarthandler.o
    0x200000f5   0x00000001   PAD
    0x200000f6   0x0000002d   Data   RW          350    .data               main.o
    0x20000123   0x00000001   PAD
    0x20000124   0x0000001f   Data   RW          532    .data               key.o
    0x20000143   0x00000001   PAD
    0x20000144   0x00000896   Data   RW          785    .data               ems.o
    0x200009da   0x00000002   PAD
    0x200009dc   0x00000078   Data   RW         1973    .data               ntctempsample.o
    0x20000a54   0x00000004   Data   RW         2026    .data               system_hc32l136.o
    0x20000a58   0x0000000c   Data   RW         2398    .data               bt.o
    0x20000a64   0x00000004   Data   RW         3334    .data               timer3.o
    0x20000a68   0x00000038   Data   RW         3716    .data               uart.o
    0x20000aa0   0x00000038   Data   RW         4731    .data               lpuart.o
    0x20000ad8   0x000001fc   Zero   RW          348    .bss                main.o
    0x20000cd4   0x00000028   Zero   RW          663    .bss                adcsample.o
    0x20000cfc   0x00000010   Zero   RW          784    .bss                ems.o
    0x20000d0c   0x00000040   Zero   RW         1972    .bss                ntctempsample.o
    0x20000d4c   0x00000010   Zero   RW         4045    .bss                dmac.o
    0x20000d5c   0x000000c0   Zero   RW         4326    .bss                adt.o
    0x20000e1c   0x00000004   PAD
    0x20000e20   0x00000200   Zero   RW         2063    STACK               startup_hc32l136.o



  Load Region LR$$.ARM.__AT_0x20000000 (Base: 0x20000000, Size: 0x00000000, Max: 0x000000c0, ABSOLUTE)

    Execution Region ER$$.ARM.__AT_0x20000000 (Base: 0x20000000, Size: 0x000000c0, Max: 0x000000c0, ABSOLUTE, UNINIT)

    Base Addr    Size         Type   Attr      Idx    E Section Name        Object

    0x20000000   0x000000c0   Zero   RW            8    .ARM.__AT_0x20000000  flash_handler.o


==============================================================================

Image component sizes


      Code (inc. data)   RO Data    RW Data    ZI Data      Debug   Object Name

       884         52          0          0          0       4017   adc.o
       436         16          0          0         40       7662   adcsample.o
       924         48          0          0        192      19535   adt.o
      1156         84          0         12          0       7236   bt.o
       200         26          0          0          0       1920   ddl.o
      1212         38          0          0         16      10103   dmac.o
      4332        294          0       2198         16      40680   ems.o
     16836          0          0          0          0      42728   ems_port.o
       104         18          0          0          0        534   flash.o
         0          0          0          0        192     126570   flash_handler.o
       764         46          0          0          0       6413   gpio.o
       584         18          0          0          0      23469   interrupts_hc32l136.o
      1134         60          0         31          0      11462   key.o
       162          0          0          0          0       1300   ledmotor.o
      1078         30          0         56          0      11641   lpuart.o
      3552        270          4         45        508      21489   main.o
       120         18          0        120         64       1575   ntctempsample.o
        60         22        192          0        512        604   startup_hc32l136.o
       688         68         24          0          0       4496   sysctrl.o
        56         14          0          4          0       1099   system_hc32l136.o
       934         26          0          0          0      35886   timehandler.o
      1292         58          0          4          0      12820   timer3.o
        78          4          0         56          0       3783   uart.o
       532         48          0         53          0       6334   uarthandler.o
       330         10          0          0          0       2195   util.o

    ----------------------------------------------------------------------
     37464       1268        252       2584       1544     405551   Object Totals
         0          0         32          0          0          0   (incl. Generated)
        16          0          0          5          4          0   (incl. Padding)

    ----------------------------------------------------------------------

      Code (inc. data)   RO Data    RW Data    ZI Data      Debug   Library Member Name

        86          0          0          0          0          0   __dczerorl2.o
         0          0          0          0          0          0   entry.o
         0          0          0          0          0          0   entry10a.o
         0          0          0          0          0          0   entry11a.o
         8          4          0          0          0          0   entry2.o
         4          0          0          0          0          0   entry5.o
         0          0          0          0          0          0   entry7b.o
         0          0          0          0          0          0   entry8b.o
         8          4          0          0          0          0   entry9a.o
        30          0          0          0          0          0   handlers.o
        40          0          0          0          0         72   idiv.o
        36          8          0          0          0         68   init.o
         0          0          0          0          0          0   iusefp.o
        36          0          0          0          0         60   memcpya.o
        44          0          0          0          0         72   uidiv.o
        20          0          0          0          0         68   cfcmple.o
        20          0          0          0          0         68   cfrcmple.o
       178          0          0          0          0        108   fadd.o
       124          0          0          0          0         72   fdiv.o
       130          0          0          0          0        144   fepilogue.o
        40          0          0          0          0         60   ffixui.o
        14          0          0          0          0         68   ffltui.o
       122          0          0          0          0         72   fmul.o

    ----------------------------------------------------------------------
       948         16          0          0          0        932   Library Totals
         8          0          0          0          0          0   (incl. Padding)

    ----------------------------------------------------------------------

      Code (inc. data)   RO Data    RW Data    ZI Data      Debug   Library Name

       292         16          0          0          0        272   mc_p.l
       648          0          0          0          0        660   mf_p.l

    ----------------------------------------------------------------------
       948         16          0          0          0        932   Library Totals

    ----------------------------------------------------------------------

==============================================================================


      Code (inc. data)   RO Data    RW Data    ZI Data      Debug   

     38412       1284        252       2584       1544     392303   Grand Totals
     38412       1284        252        984       1544     392303   ELF Image Totals (compressed)
     38412       1284        252        984          0          0   ROM Totals

==============================================================================

    Total RO  Size (Code + RO Data)                38664 (  37.76kB)
    Total RW  Size (RW Data + ZI Data)              4128 (   4.03kB)
    Total ROM Size (Code + RO Data + RW Data)      39648 (  38.72kB)

==============================================================================

